Archive member included to satisfy reference by file (symbol)

../../../obj/lib/libjos.a(libmain.o)
                              ../../../obj/lib/entry.o (libmain)
../../../obj/lib/libjos.a(exit.o)
                              build/main.o (exit)
../../../obj/lib/libjos.a(panic.o)
                              build/py/gc.o (_panic)
../../../obj/lib/libjos.a(printf.o)
                              ../../../obj/lib/libjos.a(panic.o) (vcprintf)
../../../obj/lib/libjos.a(printfmt.o)
                              ../../../obj/lib/libjos.a(printf.o) (vprintfmt)
../../../obj/lib/libjos.a(string.o)
                              build/py/qstr.o (strlen)
../../../obj/lib/libjos.a(readline.o)
                              build/input.o (readline)
../../../obj/lib/libjos.a(syscall.o)
                              ../../../obj/lib/libjos.a(printf.o) (sys_cputs)
../../../obj/lib/libjos.a(random.o)
                              build/mphalport.o (rand)
../../../obj/lib/libjos.a(random_data.o)
                              ../../../obj/lib/libjos.a(random.o) (_dev_urandom_len)
../../../obj/lib/libjos.a(fd.o)
                              build/modio.o (close)
../../../obj/lib/libjos.a(file.o)
                              build/modio.o (open)
../../../obj/lib/libjos.a(fprintf.o)
                              ../../../obj/lib/libjos.a(readline.o) (fdprintf)
../../../obj/lib/libjos.a(spawn.o)
                              build/extmod/modos.o (system)
../../../obj/lib/libjos.a(pipe.o)
                              ../../../obj/lib/libjos.a(fd.o) (devpipe)
../../../obj/lib/libjos.a(wait.o)
                              ../../../obj/lib/libjos.a(spawn.o) (wait)
../../../obj/lib/libjos.a(uvpt.o)
                              ../../../obj/lib/libjos.a(fd.o) (get_prot)
../../../obj/lib/libjos.a(vsyscall.o)
                              build/extmod/modtime.o (vsys_gettime)
../../../obj/lib/libjos.a(console.o)
                              ../../../obj/lib/libjos.a(readline.o) (cputchar)
../../../obj/lib/libjos.a(ipc.o)
                              ../../../obj/lib/libjos.a(file.o) (ipc_recv)

Merging program properties

Removed property 0xc0000002 to merge build/py/mpstate.o (0x3) and ../../../obj/lib/entry.o (not found)
Removed property 0xc0000002 to merge build/py/mpstate.o (not found) and build/shared/runtime/gchelper_generic.o (0x3)
Removed property 0xc0000002 to merge build/py/mpstate.o (not found) and build/shared/timeutils/timeutils.o (0x3)
Removed property 0xc0000002 to merge build/py/mpstate.o (not found) and build/gccollect.o (0x3)
Removed property 0xc0000002 to merge build/py/mpstate.o (not found) and build/input.o (0x3)
Removed property 0xc0000002 to merge build/py/mpstate.o (not found) and build/main.o (0x3)
Removed property 0xc0000002 to merge build/py/mpstate.o (not found) and build/mphalport.o (0x3)
Removed property 0xc0000002 to merge build/py/mpstate.o (not found) and build/modio.o (0x3)
Removed property 0xc0000002 to merge build/py/mpstate.o (not found) and build/lexer.o (0x3)
Removed property 0xc0000002 to merge build/py/mpstate.o (not found) and ../../../obj/lib/libjos.a(libmain.o) (0x3)
Removed property 0xc0000002 to merge build/py/mpstate.o (not found) and ../../../obj/lib/libjos.a(exit.o) (0x3)
Removed property 0xc0000002 to merge build/py/mpstate.o (not found) and ../../../obj/lib/libjos.a(panic.o) (0x3)
Removed property 0xc0000002 to merge build/py/mpstate.o (not found) and ../../../obj/lib/libjos.a(printf.o) (0x3)
Removed property 0xc0000002 to merge build/py/mpstate.o (not found) and ../../../obj/lib/libjos.a(printfmt.o) (0x3)
Removed property 0xc0000002 to merge build/py/mpstate.o (not found) and ../../../obj/lib/libjos.a(string.o) (0x3)
Removed property 0xc0000002 to merge build/py/mpstate.o (not found) and ../../../obj/lib/libjos.a(readline.o) (0x3)
Removed property 0xc0000002 to merge build/py/mpstate.o (not found) and ../../../obj/lib/libjos.a(syscall.o) (0x3)
Removed property 0xc0000002 to merge build/py/mpstate.o (not found) and ../../../obj/lib/libjos.a(random.o) (0x3)
Removed property 0xc0000002 to merge build/py/mpstate.o (not found) and ../../../obj/lib/libjos.a(random_data.o) (0x3)
Removed property 0xc0000002 to merge build/py/mpstate.o (not found) and ../../../obj/lib/libjos.a(fd.o) (0x3)
Removed property 0xc0000002 to merge build/py/mpstate.o (not found) and ../../../obj/lib/libjos.a(file.o) (0x3)
Removed property 0xc0000002 to merge build/py/mpstate.o (not found) and ../../../obj/lib/libjos.a(fprintf.o) (0x3)
Removed property 0xc0000002 to merge build/py/mpstate.o (not found) and ../../../obj/lib/libjos.a(spawn.o) (0x3)
Removed property 0xc0000002 to merge build/py/mpstate.o (not found) and ../../../obj/lib/libjos.a(pipe.o) (0x3)
Removed property 0xc0000002 to merge build/py/mpstate.o (not found) and ../../../obj/lib/libjos.a(wait.o) (0x3)
Removed property 0xc0000002 to merge build/py/mpstate.o (not found) and ../../../obj/lib/libjos.a(uvpt.o) (0x3)
Removed property 0xc0000002 to merge build/py/mpstate.o (not found) and ../../../obj/lib/libjos.a(vsyscall.o) (0x3)
Removed property 0xc0000002 to merge build/py/mpstate.o (not found) and ../../../obj/lib/libjos.a(console.o) (0x3)
Removed property 0xc0000002 to merge build/py/mpstate.o (not found) and ../../../obj/lib/libjos.a(ipc.o) (0x3)

Discarded input sections

 .text          0x0000000000000000        0x0 build/py/mpstate.o
 .data          0x0000000000000000        0x0 build/py/mpstate.o
 .comment       0x0000000000000000       0x2c build/py/mpstate.o
 .note.GNU-stack
                0x0000000000000000        0x0 build/py/mpstate.o
 .note.gnu.property
                0x0000000000000000       0x20 build/py/mpstate.o
 .data          0x0000000000000000        0x0 build/py/nlr.o
 .bss           0x0000000000000000        0x0 build/py/nlr.o
 .comment       0x0000000000000000       0x2c build/py/nlr.o
 .note.GNU-stack
                0x0000000000000000        0x0 build/py/nlr.o
 .note.gnu.property
                0x0000000000000000       0x20 build/py/nlr.o
 .text          0x0000000000000000        0x0 build/py/nlrx86.o
 .data          0x0000000000000000        0x0 build/py/nlrx86.o
 .bss           0x0000000000000000        0x0 build/py/nlrx86.o
 .debug_info    0x0000000000000000       0x64 build/py/nlrx86.o
 .debug_abbrev  0x0000000000000000       0x29 build/py/nlrx86.o
 .debug_pubnames
                0x0000000000000000       0x12 build/py/nlrx86.o
 .debug_pubtypes
                0x0000000000000000       0xa8 build/py/nlrx86.o
 .debug_aranges
                0x0000000000000000       0x20 build/py/nlrx86.o
 .debug_line    0x0000000000000000       0x1e build/py/nlrx86.o
 .debug_str     0x0000000000000000      0x205 build/py/nlrx86.o
 .comment       0x0000000000000000       0x2c build/py/nlrx86.o
 .note.GNU-stack
                0x0000000000000000        0x0 build/py/nlrx86.o
 .note.gnu.property
                0x0000000000000000       0x20 build/py/nlrx86.o
 .data          0x0000000000000000        0x0 build/py/nlrx64.o
 .bss           0x0000000000000000        0x0 build/py/nlrx64.o
 .comment       0x0000000000000000       0x2c build/py/nlrx64.o
 .note.GNU-stack
                0x0000000000000000        0x0 build/py/nlrx64.o
 .note.gnu.property
                0x0000000000000000       0x20 build/py/nlrx64.o
 .text          0x0000000000000000        0x0 build/py/nlrthumb.o
 .data          0x0000000000000000        0x0 build/py/nlrthumb.o
 .bss           0x0000000000000000        0x0 build/py/nlrthumb.o
 .debug_info    0x0000000000000000       0x64 build/py/nlrthumb.o
 .debug_abbrev  0x0000000000000000       0x29 build/py/nlrthumb.o
 .debug_pubnames
                0x0000000000000000       0x12 build/py/nlrthumb.o
 .debug_pubtypes
                0x0000000000000000       0xa8 build/py/nlrthumb.o
 .debug_aranges
                0x0000000000000000       0x20 build/py/nlrthumb.o
 .debug_line    0x0000000000000000       0x1e build/py/nlrthumb.o
 .debug_str     0x0000000000000000      0x207 build/py/nlrthumb.o
 .comment       0x0000000000000000       0x2c build/py/nlrthumb.o
 .note.GNU-stack
                0x0000000000000000        0x0 build/py/nlrthumb.o
 .note.gnu.property
                0x0000000000000000       0x20 build/py/nlrthumb.o
 .text          0x0000000000000000        0x0 build/py/nlraarch64.o
 .data          0x0000000000000000        0x0 build/py/nlraarch64.o
 .bss           0x0000000000000000        0x0 build/py/nlraarch64.o
 .debug_info    0x0000000000000000       0x64 build/py/nlraarch64.o
 .debug_abbrev  0x0000000000000000       0x29 build/py/nlraarch64.o
 .debug_pubnames
                0x0000000000000000       0x12 build/py/nlraarch64.o
 .debug_pubtypes
                0x0000000000000000       0xa8 build/py/nlraarch64.o
 .debug_aranges
                0x0000000000000000       0x20 build/py/nlraarch64.o
 .debug_line    0x0000000000000000       0x1e build/py/nlraarch64.o
 .debug_str     0x0000000000000000      0x209 build/py/nlraarch64.o
 .comment       0x0000000000000000       0x2c build/py/nlraarch64.o
 .note.GNU-stack
                0x0000000000000000        0x0 build/py/nlraarch64.o
 .note.gnu.property
                0x0000000000000000       0x20 build/py/nlraarch64.o
 .text          0x0000000000000000        0x0 build/py/nlrmips.o
 .data          0x0000000000000000        0x0 build/py/nlrmips.o
 .bss           0x0000000000000000        0x0 build/py/nlrmips.o
 .debug_info    0x0000000000000000       0x64 build/py/nlrmips.o
 .debug_abbrev  0x0000000000000000       0x29 build/py/nlrmips.o
 .debug_pubnames
                0x0000000000000000       0x12 build/py/nlrmips.o
 .debug_pubtypes
                0x0000000000000000       0xa8 build/py/nlrmips.o
 .debug_aranges
                0x0000000000000000       0x20 build/py/nlrmips.o
 .debug_line    0x0000000000000000       0x1e build/py/nlrmips.o
 .debug_str     0x0000000000000000      0x206 build/py/nlrmips.o
 .comment       0x0000000000000000       0x2c build/py/nlrmips.o
 .note.GNU-stack
                0x0000000000000000        0x0 build/py/nlrmips.o
 .note.gnu.property
                0x0000000000000000       0x20 build/py/nlrmips.o
 .text          0x0000000000000000        0x0 build/py/nlrpowerpc.o
 .data          0x0000000000000000        0x0 build/py/nlrpowerpc.o
 .bss           0x0000000000000000        0x0 build/py/nlrpowerpc.o
 .debug_info    0x0000000000000000       0x64 build/py/nlrpowerpc.o
 .debug_abbrev  0x0000000000000000       0x29 build/py/nlrpowerpc.o
 .debug_pubnames
                0x0000000000000000       0x12 build/py/nlrpowerpc.o
 .debug_pubtypes
                0x0000000000000000       0xa8 build/py/nlrpowerpc.o
 .debug_aranges
                0x0000000000000000       0x20 build/py/nlrpowerpc.o
 .debug_line    0x0000000000000000       0x1e build/py/nlrpowerpc.o
 .debug_str     0x0000000000000000      0x209 build/py/nlrpowerpc.o
 .comment       0x0000000000000000       0x2c build/py/nlrpowerpc.o
 .note.GNU-stack
                0x0000000000000000        0x0 build/py/nlrpowerpc.o
 .note.gnu.property
                0x0000000000000000       0x20 build/py/nlrpowerpc.o
 .text          0x0000000000000000        0x0 build/py/nlrxtensa.o
 .data          0x0000000000000000        0x0 build/py/nlrxtensa.o
 .bss           0x0000000000000000        0x0 build/py/nlrxtensa.o
 .debug_info    0x0000000000000000       0x64 build/py/nlrxtensa.o
 .debug_abbrev  0x0000000000000000       0x29 build/py/nlrxtensa.o
 .debug_pubnames
                0x0000000000000000       0x12 build/py/nlrxtensa.o
 .debug_pubtypes
                0x0000000000000000       0xa8 build/py/nlrxtensa.o
 .debug_aranges
                0x0000000000000000       0x20 build/py/nlrxtensa.o
 .debug_line    0x0000000000000000       0x1e build/py/nlrxtensa.o
 .debug_str     0x0000000000000000      0x208 build/py/nlrxtensa.o
 .comment       0x0000000000000000       0x2c build/py/nlrxtensa.o
 .note.GNU-stack
                0x0000000000000000        0x0 build/py/nlrxtensa.o
 .note.gnu.property
                0x0000000000000000       0x20 build/py/nlrxtensa.o
 .text          0x0000000000000000        0x0 build/py/nlrrv32.o
 .data          0x0000000000000000        0x0 build/py/nlrrv32.o
 .bss           0x0000000000000000        0x0 build/py/nlrrv32.o
 .debug_info    0x0000000000000000       0x64 build/py/nlrrv32.o
 .debug_abbrev  0x0000000000000000       0x29 build/py/nlrrv32.o
 .debug_pubnames
                0x0000000000000000       0x12 build/py/nlrrv32.o
 .debug_pubtypes
                0x0000000000000000       0xa8 build/py/nlrrv32.o
 .debug_aranges
                0x0000000000000000       0x20 build/py/nlrrv32.o
 .debug_line    0x0000000000000000       0x1e build/py/nlrrv32.o
 .debug_str     0x0000000000000000      0x206 build/py/nlrrv32.o
 .comment       0x0000000000000000       0x2c build/py/nlrrv32.o
 .note.GNU-stack
                0x0000000000000000        0x0 build/py/nlrrv32.o
 .note.gnu.property
                0x0000000000000000       0x20 build/py/nlrrv32.o
 .text          0x0000000000000000        0x0 build/py/nlrsetjmp.o
 .data          0x0000000000000000        0x0 build/py/nlrsetjmp.o
 .bss           0x0000000000000000        0x0 build/py/nlrsetjmp.o
 .debug_info    0x0000000000000000       0x64 build/py/nlrsetjmp.o
 .debug_abbrev  0x0000000000000000       0x29 build/py/nlrsetjmp.o
 .debug_pubnames
                0x0000000000000000       0x12 build/py/nlrsetjmp.o
 .debug_pubtypes
                0x0000000000000000       0xa8 build/py/nlrsetjmp.o
 .debug_aranges
                0x0000000000000000       0x20 build/py/nlrsetjmp.o
 .debug_line    0x0000000000000000       0x1e build/py/nlrsetjmp.o
 .debug_str     0x0000000000000000      0x208 build/py/nlrsetjmp.o
 .comment       0x0000000000000000       0x2c build/py/nlrsetjmp.o
 .note.GNU-stack
                0x0000000000000000        0x0 build/py/nlrsetjmp.o
 .note.gnu.property
                0x0000000000000000       0x20 build/py/nlrsetjmp.o
 .data          0x0000000000000000        0x0 build/py/malloc.o
 .bss           0x0000000000000000        0x0 build/py/malloc.o
 .comment       0x0000000000000000       0x2c build/py/malloc.o
 .note.GNU-stack
                0x0000000000000000        0x0 build/py/malloc.o
 .note.gnu.property
                0x0000000000000000       0x20 build/py/malloc.o
 .data          0x0000000000000000        0x0 build/py/gc.o
 .bss           0x0000000000000000        0x0 build/py/gc.o
 .comment       0x0000000000000000       0x2c build/py/gc.o
 .note.GNU-stack
                0x0000000000000000        0x0 build/py/gc.o
 .note.gnu.property
                0x0000000000000000       0x20 build/py/gc.o
 .text          0x0000000000000000        0x0 build/py/pystack.o
 .data          0x0000000000000000        0x0 build/py/pystack.o
 .bss           0x0000000000000000        0x0 build/py/pystack.o
 .debug_info    0x0000000000000000       0x64 build/py/pystack.o
 .debug_abbrev  0x0000000000000000       0x29 build/py/pystack.o
 .debug_pubnames
                0x0000000000000000       0x12 build/py/pystack.o
 .debug_pubtypes
                0x0000000000000000       0xa8 build/py/pystack.o
 .debug_aranges
                0x0000000000000000       0x20 build/py/pystack.o
 .debug_line    0x0000000000000000       0x1e build/py/pystack.o
 .debug_str     0x0000000000000000      0x202 build/py/pystack.o
 .comment       0x0000000000000000       0x2c build/py/pystack.o
 .note.GNU-stack
                0x0000000000000000        0x0 build/py/pystack.o
 .note.gnu.property
                0x0000000000000000       0x20 build/py/pystack.o
 .data          0x0000000000000000        0x0 build/py/qstr.o
 .bss           0x0000000000000000        0x0 build/py/qstr.o
 .comment       0x0000000000000000       0x2c build/py/qstr.o
 .note.GNU-stack
                0x0000000000000000        0x0 build/py/qstr.o
 .note.gnu.property
                0x0000000000000000       0x20 build/py/qstr.o
 .data          0x0000000000000000        0x0 build/py/vstr.o
 .bss           0x0000000000000000        0x0 build/py/vstr.o
 .comment       0x0000000000000000       0x2c build/py/vstr.o
 .note.GNU-stack
                0x0000000000000000        0x0 build/py/vstr.o
 .note.gnu.property
                0x0000000000000000       0x20 build/py/vstr.o
 .data          0x0000000000000000        0x0 build/py/mpprint.o
 .bss           0x0000000000000000        0x0 build/py/mpprint.o
 .comment       0x0000000000000000       0x2c build/py/mpprint.o
 .note.GNU-stack
                0x0000000000000000        0x0 build/py/mpprint.o
 .note.gnu.property
                0x0000000000000000       0x20 build/py/mpprint.o
 .data          0x0000000000000000        0x0 build/py/unicode.o
 .bss           0x0000000000000000        0x0 build/py/unicode.o
 .comment       0x0000000000000000       0x2c build/py/unicode.o
 .note.GNU-stack
                0x0000000000000000        0x0 build/py/unicode.o
 .note.gnu.property
                0x0000000000000000       0x20 build/py/unicode.o
 .data          0x0000000000000000        0x0 build/py/mpz.o
 .bss           0x0000000000000000        0x0 build/py/mpz.o
 .comment       0x0000000000000000       0x2c build/py/mpz.o
 .note.GNU-stack
                0x0000000000000000        0x0 build/py/mpz.o
 .note.gnu.property
                0x0000000000000000       0x20 build/py/mpz.o
 .data          0x0000000000000000        0x0 build/py/reader.o
 .bss           0x0000000000000000        0x0 build/py/reader.o
 .comment       0x0000000000000000       0x2c build/py/reader.o
 .note.GNU-stack
                0x0000000000000000        0x0 build/py/reader.o
 .note.gnu.property
                0x0000000000000000       0x20 build/py/reader.o
 .data          0x0000000000000000        0x0 build/py/lexer.o
 .bss           0x0000000000000000        0x0 build/py/lexer.o
 .comment       0x0000000000000000       0x2c build/py/lexer.o
 .note.GNU-stack
                0x0000000000000000        0x0 build/py/lexer.o
 .note.gnu.property
                0x0000000000000000       0x20 build/py/lexer.o
 .data          0x0000000000000000        0x0 build/py/parse.o
 .bss           0x0000000000000000        0x0 build/py/parse.o
 .comment       0x0000000000000000       0x2c build/py/parse.o
 .note.GNU-stack
                0x0000000000000000        0x0 build/py/parse.o
 .note.gnu.property
                0x0000000000000000       0x20 build/py/parse.o
 .data          0x0000000000000000        0x0 build/py/scope.o
 .bss           0x0000000000000000        0x0 build/py/scope.o
 .comment       0x0000000000000000       0x2c build/py/scope.o
 .note.GNU-stack
                0x0000000000000000        0x0 build/py/scope.o
 .note.gnu.property
                0x0000000000000000       0x20 build/py/scope.o
 .data          0x0000000000000000        0x0 build/py/compile.o
 .bss           0x0000000000000000        0x0 build/py/compile.o
 .comment       0x0000000000000000       0x2c build/py/compile.o
 .note.GNU-stack
                0x0000000000000000        0x0 build/py/compile.o
 .note.gnu.property
                0x0000000000000000       0x20 build/py/compile.o
 .data          0x0000000000000000        0x0 build/py/emitcommon.o
 .bss           0x0000000000000000        0x0 build/py/emitcommon.o
 .comment       0x0000000000000000       0x2c build/py/emitcommon.o
 .note.GNU-stack
                0x0000000000000000        0x0 build/py/emitcommon.o
 .note.gnu.property
                0x0000000000000000       0x20 build/py/emitcommon.o
 .data          0x0000000000000000        0x0 build/py/emitbc.o
 .bss           0x0000000000000000        0x0 build/py/emitbc.o
 .comment       0x0000000000000000       0x2c build/py/emitbc.o
 .note.GNU-stack
                0x0000000000000000        0x0 build/py/emitbc.o
 .note.gnu.property
                0x0000000000000000       0x20 build/py/emitbc.o
 .text          0x0000000000000000        0x0 build/py/asmbase.o
 .data          0x0000000000000000        0x0 build/py/asmbase.o
 .bss           0x0000000000000000        0x0 build/py/asmbase.o
 .debug_info    0x0000000000000000       0x64 build/py/asmbase.o
 .debug_abbrev  0x0000000000000000       0x29 build/py/asmbase.o
 .debug_pubnames
                0x0000000000000000       0x12 build/py/asmbase.o
 .debug_pubtypes
                0x0000000000000000       0xa8 build/py/asmbase.o
 .debug_aranges
                0x0000000000000000       0x20 build/py/asmbase.o
 .debug_line    0x0000000000000000       0x1e build/py/asmbase.o
 .debug_str     0x0000000000000000      0x202 build/py/asmbase.o
 .comment       0x0000000000000000       0x2c build/py/asmbase.o
 .note.GNU-stack
                0x0000000000000000        0x0 build/py/asmbase.o
 .note.gnu.property
                0x0000000000000000       0x20 build/py/asmbase.o
 .text          0x0000000000000000        0x0 build/py/asmx64.o
 .data          0x0000000000000000        0x0 build/py/asmx64.o
 .bss           0x0000000000000000        0x0 build/py/asmx64.o
 .debug_info    0x0000000000000000       0x64 build/py/asmx64.o
 .debug_abbrev  0x0000000000000000       0x29 build/py/asmx64.o
 .debug_pubnames
                0x0000000000000000       0x12 build/py/asmx64.o
 .debug_pubtypes
                0x0000000000000000       0xa8 build/py/asmx64.o
 .debug_aranges
                0x0000000000000000       0x20 build/py/asmx64.o
 .debug_line    0x0000000000000000       0x1e build/py/asmx64.o
 .debug_str     0x0000000000000000      0x201 build/py/asmx64.o
 .comment       0x0000000000000000       0x2c build/py/asmx64.o
 .note.GNU-stack
                0x0000000000000000        0x0 build/py/asmx64.o
 .note.gnu.property
                0x0000000000000000       0x20 build/py/asmx64.o
 .text          0x0000000000000000        0x0 build/py/emitnx64.o
 .data          0x0000000000000000        0x0 build/py/emitnx64.o
 .bss           0x0000000000000000        0x0 build/py/emitnx64.o
 .debug_info    0x0000000000000000       0x64 build/py/emitnx64.o
 .debug_abbrev  0x0000000000000000       0x29 build/py/emitnx64.o
 .debug_pubnames
                0x0000000000000000       0x12 build/py/emitnx64.o
 .debug_pubtypes
                0x0000000000000000       0xa8 build/py/emitnx64.o
 .debug_aranges
                0x0000000000000000       0x20 build/py/emitnx64.o
 .debug_line    0x0000000000000000       0x1e build/py/emitnx64.o
 .debug_str     0x0000000000000000      0x203 build/py/emitnx64.o
 .comment       0x0000000000000000       0x2c build/py/emitnx64.o
 .note.GNU-stack
                0x0000000000000000        0x0 build/py/emitnx64.o
 .note.gnu.property
                0x0000000000000000       0x20 build/py/emitnx64.o
 .text          0x0000000000000000        0x0 build/py/asmx86.o
 .data          0x0000000000000000        0x0 build/py/asmx86.o
 .bss           0x0000000000000000        0x0 build/py/asmx86.o
 .debug_info    0x0000000000000000       0x64 build/py/asmx86.o
 .debug_abbrev  0x0000000000000000       0x29 build/py/asmx86.o
 .debug_pubnames
                0x0000000000000000       0x12 build/py/asmx86.o
 .debug_pubtypes
                0x0000000000000000       0xa8 build/py/asmx86.o
 .debug_aranges
                0x0000000000000000       0x20 build/py/asmx86.o
 .debug_line    0x0000000000000000       0x1e build/py/asmx86.o
 .debug_str     0x0000000000000000      0x201 build/py/asmx86.o
 .comment       0x0000000000000000       0x2c build/py/asmx86.o
 .note.GNU-stack
                0x0000000000000000        0x0 build/py/asmx86.o
 .note.gnu.property
                0x0000000000000000       0x20 build/py/asmx86.o
 .text          0x0000000000000000        0x0 build/py/emitnx86.o
 .data          0x0000000000000000        0x0 build/py/emitnx86.o
 .bss           0x0000000000000000        0x0 build/py/emitnx86.o
 .debug_info    0x0000000000000000       0x72 build/py/emitnx86.o
 .debug_abbrev  0x0000000000000000       0x29 build/py/emitnx86.o
 .debug_pubnames
                0x0000000000000000       0x12 build/py/emitnx86.o
 .debug_pubtypes
                0x0000000000000000       0xbd build/py/emitnx86.o
 .debug_aranges
                0x0000000000000000       0x20 build/py/emitnx86.o
 .debug_line    0x0000000000000000       0x1e build/py/emitnx86.o
 .debug_str     0x0000000000000000      0x210 build/py/emitnx86.o
 .comment       0x0000000000000000       0x2c build/py/emitnx86.o
 .note.GNU-stack
                0x0000000000000000        0x0 build/py/emitnx86.o
 .note.gnu.property
                0x0000000000000000       0x20 build/py/emitnx86.o
 .text          0x0000000000000000        0x0 build/py/asmthumb.o
 .data          0x0000000000000000        0x0 build/py/asmthumb.o
 .bss           0x0000000000000000        0x0 build/py/asmthumb.o
 .debug_info    0x0000000000000000       0x64 build/py/asmthumb.o
 .debug_abbrev  0x0000000000000000       0x29 build/py/asmthumb.o
 .debug_pubnames
                0x0000000000000000       0x12 build/py/asmthumb.o
 .debug_pubtypes
                0x0000000000000000       0xa8 build/py/asmthumb.o
 .debug_aranges
                0x0000000000000000       0x20 build/py/asmthumb.o
 .debug_line    0x0000000000000000       0x1e build/py/asmthumb.o
 .debug_str     0x0000000000000000      0x203 build/py/asmthumb.o
 .comment       0x0000000000000000       0x2c build/py/asmthumb.o
 .note.GNU-stack
                0x0000000000000000        0x0 build/py/asmthumb.o
 .note.gnu.property
                0x0000000000000000       0x20 build/py/asmthumb.o
 .text          0x0000000000000000        0x0 build/py/emitnthumb.o
 .data          0x0000000000000000        0x0 build/py/emitnthumb.o
 .bss           0x0000000000000000        0x0 build/py/emitnthumb.o
 .debug_info    0x0000000000000000       0x64 build/py/emitnthumb.o
 .debug_abbrev  0x0000000000000000       0x29 build/py/emitnthumb.o
 .debug_pubnames
                0x0000000000000000       0x12 build/py/emitnthumb.o
 .debug_pubtypes
                0x0000000000000000       0xa8 build/py/emitnthumb.o
 .debug_aranges
                0x0000000000000000       0x20 build/py/emitnthumb.o
 .debug_line    0x0000000000000000       0x1e build/py/emitnthumb.o
 .debug_str     0x0000000000000000      0x205 build/py/emitnthumb.o
 .comment       0x0000000000000000       0x2c build/py/emitnthumb.o
 .note.GNU-stack
                0x0000000000000000        0x0 build/py/emitnthumb.o
 .note.gnu.property
                0x0000000000000000       0x20 build/py/emitnthumb.o
 .text          0x0000000000000000        0x0 build/py/emitinlinethumb.o
 .data          0x0000000000000000        0x0 build/py/emitinlinethumb.o
 .bss           0x0000000000000000        0x0 build/py/emitinlinethumb.o
 .debug_info    0x0000000000000000       0x64 build/py/emitinlinethumb.o
 .debug_abbrev  0x0000000000000000       0x29 build/py/emitinlinethumb.o
 .debug_pubnames
                0x0000000000000000       0x12 build/py/emitinlinethumb.o
 .debug_pubtypes
                0x0000000000000000       0xa8 build/py/emitinlinethumb.o
 .debug_aranges
                0x0000000000000000       0x20 build/py/emitinlinethumb.o
 .debug_line    0x0000000000000000       0x1e build/py/emitinlinethumb.o
 .debug_str     0x0000000000000000      0x20a build/py/emitinlinethumb.o
 .comment       0x0000000000000000       0x2c build/py/emitinlinethumb.o
 .note.GNU-stack
                0x0000000000000000        0x0 build/py/emitinlinethumb.o
 .note.gnu.property
                0x0000000000000000       0x20 build/py/emitinlinethumb.o
 .text          0x0000000000000000        0x0 build/py/asmarm.o
 .data          0x0000000000000000        0x0 build/py/asmarm.o
 .bss           0x0000000000000000        0x0 build/py/asmarm.o
 .debug_info    0x0000000000000000       0x64 build/py/asmarm.o
 .debug_abbrev  0x0000000000000000       0x29 build/py/asmarm.o
 .debug_pubnames
                0x0000000000000000       0x12 build/py/asmarm.o
 .debug_pubtypes
                0x0000000000000000       0xa8 build/py/asmarm.o
 .debug_aranges
                0x0000000000000000       0x20 build/py/asmarm.o
 .debug_line    0x0000000000000000       0x1e build/py/asmarm.o
 .debug_str     0x0000000000000000      0x201 build/py/asmarm.o
 .comment       0x0000000000000000       0x2c build/py/asmarm.o
 .note.GNU-stack
                0x0000000000000000        0x0 build/py/asmarm.o
 .note.gnu.property
                0x0000000000000000       0x20 build/py/asmarm.o
 .text          0x0000000000000000        0x0 build/py/emitnarm.o
 .data          0x0000000000000000        0x0 build/py/emitnarm.o
 .bss           0x0000000000000000        0x0 build/py/emitnarm.o
 .debug_info    0x0000000000000000       0x64 build/py/emitnarm.o
 .debug_abbrev  0x0000000000000000       0x29 build/py/emitnarm.o
 .debug_pubnames
                0x0000000000000000       0x12 build/py/emitnarm.o
 .debug_pubtypes
                0x0000000000000000       0xa8 build/py/emitnarm.o
 .debug_aranges
                0x0000000000000000       0x20 build/py/emitnarm.o
 .debug_line    0x0000000000000000       0x1e build/py/emitnarm.o
 .debug_str     0x0000000000000000      0x203 build/py/emitnarm.o
 .comment       0x0000000000000000       0x2c build/py/emitnarm.o
 .note.GNU-stack
                0x0000000000000000        0x0 build/py/emitnarm.o
 .note.gnu.property
                0x0000000000000000       0x20 build/py/emitnarm.o
 .text          0x0000000000000000        0x0 build/py/asmxtensa.o
 .data          0x0000000000000000        0x0 build/py/asmxtensa.o
 .bss           0x0000000000000000        0x0 build/py/asmxtensa.o
 .debug_info    0x0000000000000000       0x64 build/py/asmxtensa.o
 .debug_abbrev  0x0000000000000000       0x29 build/py/asmxtensa.o
 .debug_pubnames
                0x0000000000000000       0x12 build/py/asmxtensa.o
 .debug_pubtypes
                0x0000000000000000       0xa8 build/py/asmxtensa.o
 .debug_aranges
                0x0000000000000000       0x20 build/py/asmxtensa.o
 .debug_line    0x0000000000000000       0x1e build/py/asmxtensa.o
 .debug_str     0x0000000000000000      0x204 build/py/asmxtensa.o
 .comment       0x0000000000000000       0x2c build/py/asmxtensa.o
 .note.GNU-stack
                0x0000000000000000        0x0 build/py/asmxtensa.o
 .note.gnu.property
                0x0000000000000000       0x20 build/py/asmxtensa.o
 .text          0x0000000000000000        0x0 build/py/emitnxtensa.o
 .data          0x0000000000000000        0x0 build/py/emitnxtensa.o
 .bss           0x0000000000000000        0x0 build/py/emitnxtensa.o
 .debug_info    0x0000000000000000       0x64 build/py/emitnxtensa.o
 .debug_abbrev  0x0000000000000000       0x29 build/py/emitnxtensa.o
 .debug_pubnames
                0x0000000000000000       0x12 build/py/emitnxtensa.o
 .debug_pubtypes
                0x0000000000000000       0xa8 build/py/emitnxtensa.o
 .debug_aranges
                0x0000000000000000       0x20 build/py/emitnxtensa.o
 .debug_line    0x0000000000000000       0x1e build/py/emitnxtensa.o
 .debug_str     0x0000000000000000      0x206 build/py/emitnxtensa.o
 .comment       0x0000000000000000       0x2c build/py/emitnxtensa.o
 .note.GNU-stack
                0x0000000000000000        0x0 build/py/emitnxtensa.o
 .note.gnu.property
                0x0000000000000000       0x20 build/py/emitnxtensa.o
 .text          0x0000000000000000        0x0 build/py/emitinlinextensa.o
 .data          0x0000000000000000        0x0 build/py/emitinlinextensa.o
 .bss           0x0000000000000000        0x0 build/py/emitinlinextensa.o
 .debug_info    0x0000000000000000       0x64 build/py/emitinlinextensa.o
 .debug_abbrev  0x0000000000000000       0x29 build/py/emitinlinextensa.o
 .debug_pubnames
                0x0000000000000000       0x12 build/py/emitinlinextensa.o
 .debug_pubtypes
                0x0000000000000000       0xa8 build/py/emitinlinextensa.o
 .debug_aranges
                0x0000000000000000       0x20 build/py/emitinlinextensa.o
 .debug_line    0x0000000000000000       0x1e build/py/emitinlinextensa.o
 .debug_str     0x0000000000000000      0x20b build/py/emitinlinextensa.o
 .comment       0x0000000000000000       0x2c build/py/emitinlinextensa.o
 .note.GNU-stack
                0x0000000000000000        0x0 build/py/emitinlinextensa.o
 .note.gnu.property
                0x0000000000000000       0x20 build/py/emitinlinextensa.o
 .text          0x0000000000000000        0x0 build/py/emitnxtensawin.o
 .data          0x0000000000000000        0x0 build/py/emitnxtensawin.o
 .bss           0x0000000000000000        0x0 build/py/emitnxtensawin.o
 .debug_info    0x0000000000000000       0x64 build/py/emitnxtensawin.o
 .debug_abbrev  0x0000000000000000       0x29 build/py/emitnxtensawin.o
 .debug_pubnames
                0x0000000000000000       0x12 build/py/emitnxtensawin.o
 .debug_pubtypes
                0x0000000000000000       0xa8 build/py/emitnxtensawin.o
 .debug_aranges
                0x0000000000000000       0x20 build/py/emitnxtensawin.o
 .debug_line    0x0000000000000000       0x1e build/py/emitnxtensawin.o
 .debug_str     0x0000000000000000      0x209 build/py/emitnxtensawin.o
 .comment       0x0000000000000000       0x2c build/py/emitnxtensawin.o
 .note.GNU-stack
                0x0000000000000000        0x0 build/py/emitnxtensawin.o
 .note.gnu.property
                0x0000000000000000       0x20 build/py/emitnxtensawin.o
 .text          0x0000000000000000        0x0 build/py/asmrv32.o
 .data          0x0000000000000000        0x0 build/py/asmrv32.o
 .bss           0x0000000000000000        0x0 build/py/asmrv32.o
 .debug_info    0x0000000000000000       0x64 build/py/asmrv32.o
 .debug_abbrev  0x0000000000000000       0x29 build/py/asmrv32.o
 .debug_pubnames
                0x0000000000000000       0x12 build/py/asmrv32.o
 .debug_pubtypes
                0x0000000000000000       0xa8 build/py/asmrv32.o
 .debug_aranges
                0x0000000000000000       0x20 build/py/asmrv32.o
 .debug_line    0x0000000000000000       0x1e build/py/asmrv32.o
 .debug_str     0x0000000000000000      0x202 build/py/asmrv32.o
 .comment       0x0000000000000000       0x2c build/py/asmrv32.o
 .note.GNU-stack
                0x0000000000000000        0x0 build/py/asmrv32.o
 .note.gnu.property
                0x0000000000000000       0x20 build/py/asmrv32.o
 .text          0x0000000000000000        0x0 build/py/emitnrv32.o
 .data          0x0000000000000000        0x0 build/py/emitnrv32.o
 .bss           0x0000000000000000        0x0 build/py/emitnrv32.o
 .debug_info    0x0000000000000000       0x64 build/py/emitnrv32.o
 .debug_abbrev  0x0000000000000000       0x29 build/py/emitnrv32.o
 .debug_pubnames
                0x0000000000000000       0x12 build/py/emitnrv32.o
 .debug_pubtypes
                0x0000000000000000       0xa8 build/py/emitnrv32.o
 .debug_aranges
                0x0000000000000000       0x20 build/py/emitnrv32.o
 .debug_line    0x0000000000000000       0x1e build/py/emitnrv32.o
 .debug_str     0x0000000000000000      0x204 build/py/emitnrv32.o
 .comment       0x0000000000000000       0x2c build/py/emitnrv32.o
 .note.GNU-stack
                0x0000000000000000        0x0 build/py/emitnrv32.o
 .note.gnu.property
                0x0000000000000000       0x20 build/py/emitnrv32.o
 .text          0x0000000000000000        0x0 build/py/emitndebug.o
 .data          0x0000000000000000        0x0 build/py/emitndebug.o
 .bss           0x0000000000000000        0x0 build/py/emitndebug.o
 .debug_info    0x0000000000000000       0x64 build/py/emitndebug.o
 .debug_abbrev  0x0000000000000000       0x29 build/py/emitndebug.o
 .debug_pubnames
                0x0000000000000000       0x12 build/py/emitndebug.o
 .debug_pubtypes
                0x0000000000000000       0xa8 build/py/emitndebug.o
 .debug_aranges
                0x0000000000000000       0x20 build/py/emitndebug.o
 .debug_line    0x0000000000000000       0x1e build/py/emitndebug.o
 .debug_str     0x0000000000000000      0x205 build/py/emitndebug.o
 .comment       0x0000000000000000       0x2c build/py/emitndebug.o
 .note.GNU-stack
                0x0000000000000000        0x0 build/py/emitndebug.o
 .note.gnu.property
                0x0000000000000000       0x20 build/py/emitndebug.o
 .text          0x0000000000000000        0x0 build/py/formatfloat.o
 .data          0x0000000000000000        0x0 build/py/formatfloat.o
 .bss           0x0000000000000000        0x0 build/py/formatfloat.o
 .debug_info    0x0000000000000000       0x64 build/py/formatfloat.o
 .debug_abbrev  0x0000000000000000       0x29 build/py/formatfloat.o
 .debug_pubnames
                0x0000000000000000       0x12 build/py/formatfloat.o
 .debug_pubtypes
                0x0000000000000000       0xa8 build/py/formatfloat.o
 .debug_aranges
                0x0000000000000000       0x20 build/py/formatfloat.o
 .debug_line    0x0000000000000000       0x1e build/py/formatfloat.o
 .debug_str     0x0000000000000000      0x206 build/py/formatfloat.o
 .comment       0x0000000000000000       0x2c build/py/formatfloat.o
 .note.GNU-stack
                0x0000000000000000        0x0 build/py/formatfloat.o
 .note.gnu.property
                0x0000000000000000       0x20 build/py/formatfloat.o
 .data          0x0000000000000000        0x0 build/py/parsenumbase.o
 .bss           0x0000000000000000        0x0 build/py/parsenumbase.o
 .comment       0x0000000000000000       0x2c build/py/parsenumbase.o
 .note.GNU-stack
                0x0000000000000000        0x0 build/py/parsenumbase.o
 .note.gnu.property
                0x0000000000000000       0x20 build/py/parsenumbase.o
 .data          0x0000000000000000        0x0 build/py/parsenum.o
 .bss           0x0000000000000000        0x0 build/py/parsenum.o
 .comment       0x0000000000000000       0x2c build/py/parsenum.o
 .note.GNU-stack
                0x0000000000000000        0x0 build/py/parsenum.o
 .note.gnu.property
                0x0000000000000000       0x20 build/py/parsenum.o
 .data          0x0000000000000000        0x0 build/py/emitglue.o
 .bss           0x0000000000000000        0x0 build/py/emitglue.o
 .comment       0x0000000000000000       0x2c build/py/emitglue.o
 .note.GNU-stack
                0x0000000000000000        0x0 build/py/emitglue.o
 .note.gnu.property
                0x0000000000000000       0x20 build/py/emitglue.o
 .text          0x0000000000000000      0x665 build/py/persistentcode.o
 .data          0x0000000000000000        0x0 build/py/persistentcode.o
 .bss           0x0000000000000000        0x0 build/py/persistentcode.o
 .rodata.str1.8
                0x0000000000000000       0x70 build/py/persistentcode.o
 .rodata.str1.1
                0x0000000000000000       0x46 build/py/persistentcode.o
 .debug_info    0x0000000000000000     0x17ce build/py/persistentcode.o
 .debug_abbrev  0x0000000000000000      0x435 build/py/persistentcode.o
 .debug_loc     0x0000000000000000     0x100f build/py/persistentcode.o
 .debug_pubnames
                0x0000000000000000      0x561 build/py/persistentcode.o
 .debug_pubtypes
                0x0000000000000000      0x45a build/py/persistentcode.o
 .debug_aranges
                0x0000000000000000       0x30 build/py/persistentcode.o
 .debug_ranges  0x0000000000000000       0xf0 build/py/persistentcode.o
 .debug_line    0x0000000000000000      0x5b1 build/py/persistentcode.o
 .debug_str     0x0000000000000000     0x142a build/py/persistentcode.o
 .comment       0x0000000000000000       0x2c build/py/persistentcode.o
 .note.GNU-stack
                0x0000000000000000        0x0 build/py/persistentcode.o
 .note.gnu.property
                0x0000000000000000       0x20 build/py/persistentcode.o
 .debug_frame   0x0000000000000000      0x198 build/py/persistentcode.o
 .data          0x0000000000000000        0x0 build/py/runtime.o
 .bss           0x0000000000000000        0x0 build/py/runtime.o
 .comment       0x0000000000000000       0x2c build/py/runtime.o
 .note.GNU-stack
                0x0000000000000000        0x0 build/py/runtime.o
 .note.gnu.property
                0x0000000000000000       0x20 build/py/runtime.o
 .text          0x0000000000000000       0xf8 build/py/runtime_utils.o
 .data          0x0000000000000000        0x0 build/py/runtime_utils.o
 .bss           0x0000000000000000        0x0 build/py/runtime_utils.o
 .debug_info    0x0000000000000000      0x395 build/py/runtime_utils.o
 .debug_abbrev  0x0000000000000000      0x19f build/py/runtime_utils.o
 .debug_loc     0x0000000000000000      0x2a7 build/py/runtime_utils.o
 .debug_pubnames
                0x0000000000000000       0xb6 build/py/runtime_utils.o
 .debug_pubtypes
                0x0000000000000000      0x110 build/py/runtime_utils.o
 .debug_aranges
                0x0000000000000000       0x30 build/py/runtime_utils.o
 .debug_line    0x0000000000000000      0x119 build/py/runtime_utils.o
 .debug_str     0x0000000000000000      0x316 build/py/runtime_utils.o
 .comment       0x0000000000000000       0x2c build/py/runtime_utils.o
 .note.GNU-stack
                0x0000000000000000        0x0 build/py/runtime_utils.o
 .note.gnu.property
                0x0000000000000000       0x20 build/py/runtime_utils.o
 .debug_frame   0x0000000000000000       0x88 build/py/runtime_utils.o
 .data          0x0000000000000000        0x0 build/py/scheduler.o
 .bss           0x0000000000000000        0x0 build/py/scheduler.o
 .comment       0x0000000000000000       0x2c build/py/scheduler.o
 .note.GNU-stack
                0x0000000000000000        0x0 build/py/scheduler.o
 .note.gnu.property
                0x0000000000000000       0x20 build/py/scheduler.o
 .text          0x0000000000000000        0x0 build/py/nativeglue.o
 .data          0x0000000000000000        0x0 build/py/nativeglue.o
 .bss           0x0000000000000000        0x0 build/py/nativeglue.o
 .debug_info    0x0000000000000000       0x72 build/py/nativeglue.o
 .debug_abbrev  0x0000000000000000       0x29 build/py/nativeglue.o
 .debug_pubnames
                0x0000000000000000       0x12 build/py/nativeglue.o
 .debug_pubtypes
                0x0000000000000000       0xbd build/py/nativeglue.o
 .debug_aranges
                0x0000000000000000       0x20 build/py/nativeglue.o
 .debug_line    0x0000000000000000       0x1e build/py/nativeglue.o
 .debug_str     0x0000000000000000      0x212 build/py/nativeglue.o
 .comment       0x0000000000000000       0x2c build/py/nativeglue.o
 .note.GNU-stack
                0x0000000000000000        0x0 build/py/nativeglue.o
 .note.gnu.property
                0x0000000000000000       0x20 build/py/nativeglue.o
 .text          0x0000000000000000      0x21d build/py/pairheap.o
 .data          0x0000000000000000        0x0 build/py/pairheap.o
 .bss           0x0000000000000000        0x0 build/py/pairheap.o
 .debug_info    0x0000000000000000      0x4dc build/py/pairheap.o
 .debug_abbrev  0x0000000000000000      0x197 build/py/pairheap.o
 .debug_loc     0x0000000000000000      0x79f build/py/pairheap.o
 .debug_pubnames
                0x0000000000000000       0x56 build/py/pairheap.o
 .debug_pubtypes
                0x0000000000000000      0x153 build/py/pairheap.o
 .debug_aranges
                0x0000000000000000       0x30 build/py/pairheap.o
 .debug_ranges  0x0000000000000000       0x90 build/py/pairheap.o
 .debug_line    0x0000000000000000      0x2c3 build/py/pairheap.o
 .debug_str     0x0000000000000000      0x3eb build/py/pairheap.o
 .comment       0x0000000000000000       0x2c build/py/pairheap.o
 .note.GNU-stack
                0x0000000000000000        0x0 build/py/pairheap.o
 .note.gnu.property
                0x0000000000000000       0x20 build/py/pairheap.o
 .debug_frame   0x0000000000000000       0xd0 build/py/pairheap.o
 .text          0x0000000000000000      0x28f build/py/ringbuf.o
 .data          0x0000000000000000        0x0 build/py/ringbuf.o
 .bss           0x0000000000000000        0x0 build/py/ringbuf.o
 .debug_info    0x0000000000000000      0x47d build/py/ringbuf.o
 .debug_abbrev  0x0000000000000000      0x1ae build/py/ringbuf.o
 .debug_loc     0x0000000000000000      0x765 build/py/ringbuf.o
 .debug_pubnames
                0x0000000000000000       0xa3 build/py/ringbuf.o
 .debug_pubtypes
                0x0000000000000000       0xe3 build/py/ringbuf.o
 .debug_aranges
                0x0000000000000000       0x30 build/py/ringbuf.o
 .debug_line    0x0000000000000000      0x2ef build/py/ringbuf.o
 .debug_str     0x0000000000000000      0x2d6 build/py/ringbuf.o
 .comment       0x0000000000000000       0x2c build/py/ringbuf.o
 .note.GNU-stack
                0x0000000000000000        0x0 build/py/ringbuf.o
 .note.gnu.property
                0x0000000000000000       0x20 build/py/ringbuf.o
 .debug_frame   0x0000000000000000      0x110 build/py/ringbuf.o
 .data          0x0000000000000000        0x0 build/py/stackctrl.o
 .bss           0x0000000000000000        0x0 build/py/stackctrl.o
 .comment       0x0000000000000000       0x2c build/py/stackctrl.o
 .note.GNU-stack
                0x0000000000000000        0x0 build/py/stackctrl.o
 .note.gnu.property
                0x0000000000000000       0x20 build/py/stackctrl.o
 .data          0x0000000000000000        0x0 build/py/argcheck.o
 .bss           0x0000000000000000        0x0 build/py/argcheck.o
 .comment       0x0000000000000000       0x2c build/py/argcheck.o
 .note.GNU-stack
                0x0000000000000000        0x0 build/py/argcheck.o
 .note.gnu.property
                0x0000000000000000       0x20 build/py/argcheck.o
 .data          0x0000000000000000        0x0 build/py/warning.o
 .bss           0x0000000000000000        0x0 build/py/warning.o
 .comment       0x0000000000000000       0x2c build/py/warning.o
 .note.GNU-stack
                0x0000000000000000        0x0 build/py/warning.o
 .note.gnu.property
                0x0000000000000000       0x20 build/py/warning.o
 .text          0x0000000000000000        0x0 build/py/profile.o
 .data          0x0000000000000000        0x0 build/py/profile.o
 .bss           0x0000000000000000        0x0 build/py/profile.o
 .debug_info    0x0000000000000000       0x64 build/py/profile.o
 .debug_abbrev  0x0000000000000000       0x29 build/py/profile.o
 .debug_pubnames
                0x0000000000000000       0x12 build/py/profile.o
 .debug_pubtypes
                0x0000000000000000       0xa8 build/py/profile.o
 .debug_aranges
                0x0000000000000000       0x20 build/py/profile.o
 .debug_line    0x0000000000000000       0x1e build/py/profile.o
 .debug_str     0x0000000000000000      0x202 build/py/profile.o
 .comment       0x0000000000000000       0x2c build/py/profile.o
 .note.GNU-stack
                0x0000000000000000        0x0 build/py/profile.o
 .note.gnu.property
                0x0000000000000000       0x20 build/py/profile.o
 .data          0x0000000000000000        0x0 build/py/map.o
 .bss           0x0000000000000000        0x0 build/py/map.o
 .comment       0x0000000000000000       0x2c build/py/map.o
 .note.GNU-stack
                0x0000000000000000        0x0 build/py/map.o
 .note.gnu.property
                0x0000000000000000       0x20 build/py/map.o
 .data          0x0000000000000000        0x0 build/py/obj.o
 .bss           0x0000000000000000        0x0 build/py/obj.o
 .comment       0x0000000000000000       0x2c build/py/obj.o
 .note.GNU-stack
                0x0000000000000000        0x0 build/py/obj.o
 .note.gnu.property
                0x0000000000000000       0x20 build/py/obj.o
 .text          0x0000000000000000        0x0 build/py/objarray.o
 .data          0x0000000000000000        0x0 build/py/objarray.o
 .bss           0x0000000000000000        0x0 build/py/objarray.o
 .debug_info    0x0000000000000000       0x64 build/py/objarray.o
 .debug_abbrev  0x0000000000000000       0x29 build/py/objarray.o
 .debug_pubnames
                0x0000000000000000       0x12 build/py/objarray.o
 .debug_pubtypes
                0x0000000000000000       0xa8 build/py/objarray.o
 .debug_aranges
                0x0000000000000000       0x20 build/py/objarray.o
 .debug_line    0x0000000000000000       0x1e build/py/objarray.o
 .debug_str     0x0000000000000000      0x203 build/py/objarray.o
 .comment       0x0000000000000000       0x2c build/py/objarray.o
 .note.GNU-stack
                0x0000000000000000        0x0 build/py/objarray.o
 .note.gnu.property
                0x0000000000000000       0x20 build/py/objarray.o
 .data          0x0000000000000000        0x0 build/py/objattrtuple.o
 .bss           0x0000000000000000        0x0 build/py/objattrtuple.o
 .comment       0x0000000000000000       0x2c build/py/objattrtuple.o
 .note.GNU-stack
                0x0000000000000000        0x0 build/py/objattrtuple.o
 .note.gnu.property
                0x0000000000000000       0x20 build/py/objattrtuple.o
 .data          0x0000000000000000        0x0 build/py/objbool.o
 .bss           0x0000000000000000        0x0 build/py/objbool.o
 .comment       0x0000000000000000       0x2c build/py/objbool.o
 .note.GNU-stack
                0x0000000000000000        0x0 build/py/objbool.o
 .note.gnu.property
                0x0000000000000000       0x20 build/py/objbool.o
 .data          0x0000000000000000        0x0 build/py/objboundmeth.o
 .bss           0x0000000000000000        0x0 build/py/objboundmeth.o
 .comment       0x0000000000000000       0x2c build/py/objboundmeth.o
 .note.GNU-stack
                0x0000000000000000        0x0 build/py/objboundmeth.o
 .note.gnu.property
                0x0000000000000000       0x20 build/py/objboundmeth.o
 .data          0x0000000000000000        0x0 build/py/objcell.o
 .bss           0x0000000000000000        0x0 build/py/objcell.o
 .comment       0x0000000000000000       0x2c build/py/objcell.o
 .note.GNU-stack
                0x0000000000000000        0x0 build/py/objcell.o
 .note.gnu.property
                0x0000000000000000       0x20 build/py/objcell.o
 .data          0x0000000000000000        0x0 build/py/objclosure.o
 .bss           0x0000000000000000        0x0 build/py/objclosure.o
 .comment       0x0000000000000000       0x2c build/py/objclosure.o
 .note.GNU-stack
                0x0000000000000000        0x0 build/py/objclosure.o
 .note.gnu.property
                0x0000000000000000       0x20 build/py/objclosure.o
 .text          0x0000000000000000        0x0 build/py/objcomplex.o
 .data          0x0000000000000000        0x0 build/py/objcomplex.o
 .bss           0x0000000000000000        0x0 build/py/objcomplex.o
 .debug_info    0x0000000000000000       0x64 build/py/objcomplex.o
 .debug_abbrev  0x0000000000000000       0x29 build/py/objcomplex.o
 .debug_pubnames
                0x0000000000000000       0x12 build/py/objcomplex.o
 .debug_pubtypes
                0x0000000000000000       0xa8 build/py/objcomplex.o
 .debug_aranges
                0x0000000000000000       0x20 build/py/objcomplex.o
 .debug_line    0x0000000000000000       0x1e build/py/objcomplex.o
 .debug_str     0x0000000000000000      0x205 build/py/objcomplex.o
 .comment       0x0000000000000000       0x2c build/py/objcomplex.o
 .note.GNU-stack
                0x0000000000000000        0x0 build/py/objcomplex.o
 .note.gnu.property
                0x0000000000000000       0x20 build/py/objcomplex.o
 .text          0x0000000000000000        0x0 build/py/objdeque.o
 .data          0x0000000000000000        0x0 build/py/objdeque.o
 .bss           0x0000000000000000        0x0 build/py/objdeque.o
 .debug_info    0x0000000000000000       0x64 build/py/objdeque.o
 .debug_abbrev  0x0000000000000000       0x29 build/py/objdeque.o
 .debug_pubnames
                0x0000000000000000       0x12 build/py/objdeque.o
 .debug_pubtypes
                0x0000000000000000       0xa8 build/py/objdeque.o
 .debug_aranges
                0x0000000000000000       0x20 build/py/objdeque.o
 .debug_line    0x0000000000000000       0x1e build/py/objdeque.o
 .debug_str     0x0000000000000000      0x203 build/py/objdeque.o
 .comment       0x0000000000000000       0x2c build/py/objdeque.o
 .note.GNU-stack
                0x0000000000000000        0x0 build/py/objdeque.o
 .note.gnu.property
                0x0000000000000000       0x20 build/py/objdeque.o
 .data          0x0000000000000000        0x0 build/py/objdict.o
 .bss           0x0000000000000000        0x0 build/py/objdict.o
 .comment       0x0000000000000000       0x2c build/py/objdict.o
 .note.GNU-stack
                0x0000000000000000        0x0 build/py/objdict.o
 .note.gnu.property
                0x0000000000000000       0x20 build/py/objdict.o
 .text          0x0000000000000000        0x0 build/py/objenumerate.o
 .data          0x0000000000000000        0x0 build/py/objenumerate.o
 .bss           0x0000000000000000        0x0 build/py/objenumerate.o
 .debug_info    0x0000000000000000       0x64 build/py/objenumerate.o
 .debug_abbrev  0x0000000000000000       0x29 build/py/objenumerate.o
 .debug_pubnames
                0x0000000000000000       0x12 build/py/objenumerate.o
 .debug_pubtypes
                0x0000000000000000       0xa8 build/py/objenumerate.o
 .debug_aranges
                0x0000000000000000       0x20 build/py/objenumerate.o
 .debug_line    0x0000000000000000       0x1e build/py/objenumerate.o
 .debug_str     0x0000000000000000      0x207 build/py/objenumerate.o
 .comment       0x0000000000000000       0x2c build/py/objenumerate.o
 .note.GNU-stack
                0x0000000000000000        0x0 build/py/objenumerate.o
 .note.gnu.property
                0x0000000000000000       0x20 build/py/objenumerate.o
 .data          0x0000000000000000        0x0 build/py/objexcept.o
 .bss           0x0000000000000000        0x0 build/py/objexcept.o
 .comment       0x0000000000000000       0x2c build/py/objexcept.o
 .note.GNU-stack
                0x0000000000000000        0x0 build/py/objexcept.o
 .note.gnu.property
                0x0000000000000000       0x20 build/py/objexcept.o
 .text          0x0000000000000000        0x0 build/py/objfilter.o
 .data          0x0000000000000000        0x0 build/py/objfilter.o
 .bss           0x0000000000000000        0x0 build/py/objfilter.o
 .debug_info    0x0000000000000000       0x64 build/py/objfilter.o
 .debug_abbrev  0x0000000000000000       0x29 build/py/objfilter.o
 .debug_pubnames
                0x0000000000000000       0x12 build/py/objfilter.o
 .debug_pubtypes
                0x0000000000000000       0xa8 build/py/objfilter.o
 .debug_aranges
                0x0000000000000000       0x20 build/py/objfilter.o
 .debug_line    0x0000000000000000       0x1e build/py/objfilter.o
 .debug_str     0x0000000000000000      0x204 build/py/objfilter.o
 .comment       0x0000000000000000       0x2c build/py/objfilter.o
 .note.GNU-stack
                0x0000000000000000        0x0 build/py/objfilter.o
 .note.gnu.property
                0x0000000000000000       0x20 build/py/objfilter.o
 .text          0x0000000000000000        0x0 build/py/objfloat.o
 .data          0x0000000000000000        0x0 build/py/objfloat.o
 .bss           0x0000000000000000        0x0 build/py/objfloat.o
 .debug_info    0x0000000000000000       0x64 build/py/objfloat.o
 .debug_abbrev  0x0000000000000000       0x29 build/py/objfloat.o
 .debug_pubnames
                0x0000000000000000       0x12 build/py/objfloat.o
 .debug_pubtypes
                0x0000000000000000       0xa8 build/py/objfloat.o
 .debug_aranges
                0x0000000000000000       0x20 build/py/objfloat.o
 .debug_line    0x0000000000000000       0x1e build/py/objfloat.o
 .debug_str     0x0000000000000000      0x203 build/py/objfloat.o
 .comment       0x0000000000000000       0x2c build/py/objfloat.o
 .note.GNU-stack
                0x0000000000000000        0x0 build/py/objfloat.o
 .note.gnu.property
                0x0000000000000000       0x20 build/py/objfloat.o
 .data          0x0000000000000000        0x0 build/py/objfun.o
 .bss           0x0000000000000000        0x0 build/py/objfun.o
 .comment       0x0000000000000000       0x2c build/py/objfun.o
 .note.GNU-stack
                0x0000000000000000        0x0 build/py/objfun.o
 .note.gnu.property
                0x0000000000000000       0x20 build/py/objfun.o
 .data          0x0000000000000000        0x0 build/py/objgenerator.o
 .bss           0x0000000000000000        0x0 build/py/objgenerator.o
 .comment       0x0000000000000000       0x2c build/py/objgenerator.o
 .note.GNU-stack
                0x0000000000000000        0x0 build/py/objgenerator.o
 .note.gnu.property
                0x0000000000000000       0x20 build/py/objgenerator.o
 .data          0x0000000000000000        0x0 build/py/objgetitemiter.o
 .bss           0x0000000000000000        0x0 build/py/objgetitemiter.o
 .comment       0x0000000000000000       0x2c build/py/objgetitemiter.o
 .note.GNU-stack
                0x0000000000000000        0x0 build/py/objgetitemiter.o
 .note.gnu.property
                0x0000000000000000       0x20 build/py/objgetitemiter.o
 .data          0x0000000000000000        0x0 build/py/objint.o
 .bss           0x0000000000000000        0x0 build/py/objint.o
 .comment       0x0000000000000000       0x2c build/py/objint.o
 .note.GNU-stack
                0x0000000000000000        0x0 build/py/objint.o
 .note.gnu.property
                0x0000000000000000       0x20 build/py/objint.o
 .text          0x0000000000000000        0x0 build/py/objint_longlong.o
 .data          0x0000000000000000        0x0 build/py/objint_longlong.o
 .bss           0x0000000000000000        0x0 build/py/objint_longlong.o
 .debug_info    0x0000000000000000       0x64 build/py/objint_longlong.o
 .debug_abbrev  0x0000000000000000       0x29 build/py/objint_longlong.o
 .debug_pubnames
                0x0000000000000000       0x12 build/py/objint_longlong.o
 .debug_pubtypes
                0x0000000000000000       0xa8 build/py/objint_longlong.o
 .debug_aranges
                0x0000000000000000       0x20 build/py/objint_longlong.o
 .debug_line    0x0000000000000000       0x1e build/py/objint_longlong.o
 .debug_str     0x0000000000000000      0x20a build/py/objint_longlong.o
 .comment       0x0000000000000000       0x2c build/py/objint_longlong.o
 .note.GNU-stack
                0x0000000000000000        0x0 build/py/objint_longlong.o
 .note.gnu.property
                0x0000000000000000       0x20 build/py/objint_longlong.o
 .data          0x0000000000000000        0x0 build/py/objint_mpz.o
 .bss           0x0000000000000000        0x0 build/py/objint_mpz.o
 .comment       0x0000000000000000       0x2c build/py/objint_mpz.o
 .note.GNU-stack
                0x0000000000000000        0x0 build/py/objint_mpz.o
 .note.gnu.property
                0x0000000000000000       0x20 build/py/objint_mpz.o
 .data          0x0000000000000000        0x0 build/py/objlist.o
 .bss           0x0000000000000000        0x0 build/py/objlist.o
 .comment       0x0000000000000000       0x2c build/py/objlist.o
 .note.GNU-stack
                0x0000000000000000        0x0 build/py/objlist.o
 .note.gnu.property
                0x0000000000000000       0x20 build/py/objlist.o
 .data          0x0000000000000000        0x0 build/py/objmap.o
 .bss           0x0000000000000000        0x0 build/py/objmap.o
 .comment       0x0000000000000000       0x2c build/py/objmap.o
 .note.GNU-stack
                0x0000000000000000        0x0 build/py/objmap.o
 .note.gnu.property
                0x0000000000000000       0x20 build/py/objmap.o
 .data          0x0000000000000000        0x0 build/py/objmodule.o
 .bss           0x0000000000000000        0x0 build/py/objmodule.o
 .comment       0x0000000000000000       0x2c build/py/objmodule.o
 .note.GNU-stack
                0x0000000000000000        0x0 build/py/objmodule.o
 .note.gnu.property
                0x0000000000000000       0x20 build/py/objmodule.o
 .data          0x0000000000000000        0x0 build/py/objobject.o
 .bss           0x0000000000000000        0x0 build/py/objobject.o
 .comment       0x0000000000000000       0x2c build/py/objobject.o
 .note.GNU-stack
                0x0000000000000000        0x0 build/py/objobject.o
 .note.gnu.property
                0x0000000000000000       0x20 build/py/objobject.o
 .data          0x0000000000000000        0x0 build/py/objpolyiter.o
 .bss           0x0000000000000000        0x0 build/py/objpolyiter.o
 .comment       0x0000000000000000       0x2c build/py/objpolyiter.o
 .note.GNU-stack
                0x0000000000000000        0x0 build/py/objpolyiter.o
 .note.gnu.property
                0x0000000000000000       0x20 build/py/objpolyiter.o
 .text          0x0000000000000000        0x0 build/py/objproperty.o
 .data          0x0000000000000000        0x0 build/py/objproperty.o
 .bss           0x0000000000000000        0x0 build/py/objproperty.o
 .debug_info    0x0000000000000000       0x64 build/py/objproperty.o
 .debug_abbrev  0x0000000000000000       0x29 build/py/objproperty.o
 .debug_pubnames
                0x0000000000000000       0x12 build/py/objproperty.o
 .debug_pubtypes
                0x0000000000000000       0xa8 build/py/objproperty.o
 .debug_aranges
                0x0000000000000000       0x20 build/py/objproperty.o
 .debug_line    0x0000000000000000       0x1e build/py/objproperty.o
 .debug_str     0x0000000000000000      0x206 build/py/objproperty.o
 .comment       0x0000000000000000       0x2c build/py/objproperty.o
 .note.GNU-stack
                0x0000000000000000        0x0 build/py/objproperty.o
 .note.gnu.property
                0x0000000000000000       0x20 build/py/objproperty.o
 .data          0x0000000000000000        0x0 build/py/objnone.o
 .bss           0x0000000000000000        0x0 build/py/objnone.o
 .comment       0x0000000000000000       0x2c build/py/objnone.o
 .note.GNU-stack
                0x0000000000000000        0x0 build/py/objnone.o
 .note.gnu.property
                0x0000000000000000       0x20 build/py/objnone.o
 .text          0x0000000000000000        0x0 build/py/objnamedtuple.o
 .data          0x0000000000000000        0x0 build/py/objnamedtuple.o
 .bss           0x0000000000000000        0x0 build/py/objnamedtuple.o
 .debug_info    0x0000000000000000       0x64 build/py/objnamedtuple.o
 .debug_abbrev  0x0000000000000000       0x29 build/py/objnamedtuple.o
 .debug_pubnames
                0x0000000000000000       0x12 build/py/objnamedtuple.o
 .debug_pubtypes
                0x0000000000000000       0xa8 build/py/objnamedtuple.o
 .debug_aranges
                0x0000000000000000       0x20 build/py/objnamedtuple.o
 .debug_line    0x0000000000000000       0x1e build/py/objnamedtuple.o
 .debug_str     0x0000000000000000      0x208 build/py/objnamedtuple.o
 .comment       0x0000000000000000       0x2c build/py/objnamedtuple.o
 .note.GNU-stack
                0x0000000000000000        0x0 build/py/objnamedtuple.o
 .note.gnu.property
                0x0000000000000000       0x20 build/py/objnamedtuple.o
 .data          0x0000000000000000        0x0 build/py/objrange.o
 .bss           0x0000000000000000        0x0 build/py/objrange.o
 .comment       0x0000000000000000       0x2c build/py/objrange.o
 .note.GNU-stack
                0x0000000000000000        0x0 build/py/objrange.o
 .note.gnu.property
                0x0000000000000000       0x20 build/py/objrange.o
 .text          0x0000000000000000        0x0 build/py/objreversed.o
 .data          0x0000000000000000        0x0 build/py/objreversed.o
 .bss           0x0000000000000000        0x0 build/py/objreversed.o
 .debug_info    0x0000000000000000       0x64 build/py/objreversed.o
 .debug_abbrev  0x0000000000000000       0x29 build/py/objreversed.o
 .debug_pubnames
                0x0000000000000000       0x12 build/py/objreversed.o
 .debug_pubtypes
                0x0000000000000000       0xa8 build/py/objreversed.o
 .debug_aranges
                0x0000000000000000       0x20 build/py/objreversed.o
 .debug_line    0x0000000000000000       0x1e build/py/objreversed.o
 .debug_str     0x0000000000000000      0x206 build/py/objreversed.o
 .comment       0x0000000000000000       0x2c build/py/objreversed.o
 .note.GNU-stack
                0x0000000000000000        0x0 build/py/objreversed.o
 .note.gnu.property
                0x0000000000000000       0x20 build/py/objreversed.o
 .text          0x0000000000000000        0x0 build/py/objset.o
 .data          0x0000000000000000        0x0 build/py/objset.o
 .bss           0x0000000000000000        0x0 build/py/objset.o
 .debug_info    0x0000000000000000       0x64 build/py/objset.o
 .debug_abbrev  0x0000000000000000       0x29 build/py/objset.o
 .debug_pubnames
                0x0000000000000000       0x12 build/py/objset.o
 .debug_pubtypes
                0x0000000000000000       0xa8 build/py/objset.o
 .debug_aranges
                0x0000000000000000       0x20 build/py/objset.o
 .debug_line    0x0000000000000000       0x1e build/py/objset.o
 .debug_str     0x0000000000000000      0x201 build/py/objset.o
 .comment       0x0000000000000000       0x2c build/py/objset.o
 .note.GNU-stack
                0x0000000000000000        0x0 build/py/objset.o
 .note.gnu.property
                0x0000000000000000       0x20 build/py/objset.o
 .data          0x0000000000000000        0x0 build/py/objsingleton.o
 .bss           0x0000000000000000        0x0 build/py/objsingleton.o
 .comment       0x0000000000000000       0x2c build/py/objsingleton.o
 .note.GNU-stack
                0x0000000000000000        0x0 build/py/objsingleton.o
 .note.gnu.property
                0x0000000000000000       0x20 build/py/objsingleton.o
 .text          0x0000000000000000        0x0 build/py/objslice.o
 .data          0x0000000000000000        0x0 build/py/objslice.o
 .bss           0x0000000000000000        0x0 build/py/objslice.o
 .debug_info    0x0000000000000000       0x64 build/py/objslice.o
 .debug_abbrev  0x0000000000000000       0x29 build/py/objslice.o
 .debug_pubnames
                0x0000000000000000       0x12 build/py/objslice.o
 .debug_pubtypes
                0x0000000000000000       0xa8 build/py/objslice.o
 .debug_aranges
                0x0000000000000000       0x20 build/py/objslice.o
 .debug_line    0x0000000000000000       0x1e build/py/objslice.o
 .debug_str     0x0000000000000000      0x203 build/py/objslice.o
 .comment       0x0000000000000000       0x2c build/py/objslice.o
 .note.GNU-stack
                0x0000000000000000        0x0 build/py/objslice.o
 .note.gnu.property
                0x0000000000000000       0x20 build/py/objslice.o
 .data          0x0000000000000000        0x0 build/py/objstr.o
 .bss           0x0000000000000000        0x0 build/py/objstr.o
 .comment       0x0000000000000000       0x2c build/py/objstr.o
 .note.GNU-stack
                0x0000000000000000        0x0 build/py/objstr.o
 .note.gnu.property
                0x0000000000000000       0x20 build/py/objstr.o
 .text          0x0000000000000000        0x0 build/py/objstrunicode.o
 .data          0x0000000000000000        0x0 build/py/objstrunicode.o
 .bss           0x0000000000000000        0x0 build/py/objstrunicode.o
 .debug_info    0x0000000000000000       0x64 build/py/objstrunicode.o
 .debug_abbrev  0x0000000000000000       0x29 build/py/objstrunicode.o
 .debug_pubnames
                0x0000000000000000       0x12 build/py/objstrunicode.o
 .debug_pubtypes
                0x0000000000000000       0xa8 build/py/objstrunicode.o
 .debug_aranges
                0x0000000000000000       0x20 build/py/objstrunicode.o
 .debug_line    0x0000000000000000       0x1e build/py/objstrunicode.o
 .debug_str     0x0000000000000000      0x208 build/py/objstrunicode.o
 .comment       0x0000000000000000       0x2c build/py/objstrunicode.o
 .note.GNU-stack
                0x0000000000000000        0x0 build/py/objstrunicode.o
 .note.gnu.property
                0x0000000000000000       0x20 build/py/objstrunicode.o
 .text          0x0000000000000000        0x0 build/py/objstringio.o
 .data          0x0000000000000000        0x0 build/py/objstringio.o
 .bss           0x0000000000000000        0x0 build/py/objstringio.o
 .debug_info    0x0000000000000000       0x64 build/py/objstringio.o
 .debug_abbrev  0x0000000000000000       0x29 build/py/objstringio.o
 .debug_pubnames
                0x0000000000000000       0x12 build/py/objstringio.o
 .debug_pubtypes
                0x0000000000000000       0xa8 build/py/objstringio.o
 .debug_aranges
                0x0000000000000000       0x20 build/py/objstringio.o
 .debug_line    0x0000000000000000       0x1e build/py/objstringio.o
 .debug_str     0x0000000000000000      0x206 build/py/objstringio.o
 .comment       0x0000000000000000       0x2c build/py/objstringio.o
 .note.GNU-stack
                0x0000000000000000        0x0 build/py/objstringio.o
 .note.gnu.property
                0x0000000000000000       0x20 build/py/objstringio.o
 .data          0x0000000000000000        0x0 build/py/objtuple.o
 .bss           0x0000000000000000        0x0 build/py/objtuple.o
 .comment       0x0000000000000000       0x2c build/py/objtuple.o
 .note.GNU-stack
                0x0000000000000000        0x0 build/py/objtuple.o
 .note.gnu.property
                0x0000000000000000       0x20 build/py/objtuple.o
 .data          0x0000000000000000        0x0 build/py/objtype.o
 .bss           0x0000000000000000        0x0 build/py/objtype.o
 .comment       0x0000000000000000       0x2c build/py/objtype.o
 .note.GNU-stack
                0x0000000000000000        0x0 build/py/objtype.o
 .note.gnu.property
                0x0000000000000000       0x20 build/py/objtype.o
 .data          0x0000000000000000        0x0 build/py/objzip.o
 .bss           0x0000000000000000        0x0 build/py/objzip.o
 .comment       0x0000000000000000       0x2c build/py/objzip.o
 .note.GNU-stack
                0x0000000000000000        0x0 build/py/objzip.o
 .note.gnu.property
                0x0000000000000000       0x20 build/py/objzip.o
 .data          0x0000000000000000        0x0 build/py/opmethods.o
 .bss           0x0000000000000000        0x0 build/py/opmethods.o
 .comment       0x0000000000000000       0x2c build/py/opmethods.o
 .note.GNU-stack
                0x0000000000000000        0x0 build/py/opmethods.o
 .note.gnu.property
                0x0000000000000000       0x20 build/py/opmethods.o
 .data          0x0000000000000000        0x0 build/py/sequence.o
 .bss           0x0000000000000000        0x0 build/py/sequence.o
 .comment       0x0000000000000000       0x2c build/py/sequence.o
 .note.GNU-stack
                0x0000000000000000        0x0 build/py/sequence.o
 .note.gnu.property
                0x0000000000000000       0x20 build/py/sequence.o
 .data          0x0000000000000000        0x0 build/py/stream.o
 .bss           0x0000000000000000        0x0 build/py/stream.o
 .rodata        0x0000000000000000      0x148 build/py/stream.o
 .comment       0x0000000000000000       0x2c build/py/stream.o
 .note.GNU-stack
                0x0000000000000000        0x0 build/py/stream.o
 .note.gnu.property
                0x0000000000000000       0x20 build/py/stream.o
 .data          0x0000000000000000        0x0 build/py/binary.o
 .bss           0x0000000000000000        0x0 build/py/binary.o
 .comment       0x0000000000000000       0x2c build/py/binary.o
 .note.GNU-stack
                0x0000000000000000        0x0 build/py/binary.o
 .note.gnu.property
                0x0000000000000000       0x20 build/py/binary.o
 .data          0x0000000000000000        0x0 build/py/builtinimport.o
 .bss           0x0000000000000000        0x0 build/py/builtinimport.o
 .comment       0x0000000000000000       0x2c build/py/builtinimport.o
 .note.GNU-stack
                0x0000000000000000        0x0 build/py/builtinimport.o
 .note.gnu.property
                0x0000000000000000       0x20 build/py/builtinimport.o
 .data          0x0000000000000000        0x0 build/py/builtinevex.o
 .bss           0x0000000000000000        0x0 build/py/builtinevex.o
 .comment       0x0000000000000000       0x2c build/py/builtinevex.o
 .note.GNU-stack
                0x0000000000000000        0x0 build/py/builtinevex.o
 .note.gnu.property
                0x0000000000000000       0x20 build/py/builtinevex.o
 .text          0x0000000000000000        0x0 build/py/builtinhelp.o
 .data          0x0000000000000000        0x0 build/py/builtinhelp.o
 .bss           0x0000000000000000        0x0 build/py/builtinhelp.o
 .debug_info    0x0000000000000000       0x64 build/py/builtinhelp.o
 .debug_abbrev  0x0000000000000000       0x29 build/py/builtinhelp.o
 .debug_pubnames
                0x0000000000000000       0x12 build/py/builtinhelp.o
 .debug_pubtypes
                0x0000000000000000       0xa8 build/py/builtinhelp.o
 .debug_aranges
                0x0000000000000000       0x20 build/py/builtinhelp.o
 .debug_line    0x0000000000000000       0x1e build/py/builtinhelp.o
 .debug_str     0x0000000000000000      0x206 build/py/builtinhelp.o
 .comment       0x0000000000000000       0x2c build/py/builtinhelp.o
 .note.GNU-stack
                0x0000000000000000        0x0 build/py/builtinhelp.o
 .note.gnu.property
                0x0000000000000000       0x20 build/py/builtinhelp.o
 .text          0x0000000000000000        0x0 build/py/modarray.o
 .data          0x0000000000000000        0x0 build/py/modarray.o
 .bss           0x0000000000000000        0x0 build/py/modarray.o
 .debug_info    0x0000000000000000       0x64 build/py/modarray.o
 .debug_abbrev  0x0000000000000000       0x29 build/py/modarray.o
 .debug_pubnames
                0x0000000000000000       0x12 build/py/modarray.o
 .debug_pubtypes
                0x0000000000000000       0xa8 build/py/modarray.o
 .debug_aranges
                0x0000000000000000       0x20 build/py/modarray.o
 .debug_line    0x0000000000000000       0x1e build/py/modarray.o
 .debug_str     0x0000000000000000      0x203 build/py/modarray.o
 .comment       0x0000000000000000       0x2c build/py/modarray.o
 .note.GNU-stack
                0x0000000000000000        0x0 build/py/modarray.o
 .note.gnu.property
                0x0000000000000000       0x20 build/py/modarray.o
 .data          0x0000000000000000        0x0 build/py/modbuiltins.o
 .bss           0x0000000000000000        0x0 build/py/modbuiltins.o
 .comment       0x0000000000000000       0x2c build/py/modbuiltins.o
 .note.GNU-stack
                0x0000000000000000        0x0 build/py/modbuiltins.o
 .note.gnu.property
                0x0000000000000000       0x20 build/py/modbuiltins.o
 .text          0x0000000000000000        0x0 build/py/modcollections.o
 .data          0x0000000000000000        0x0 build/py/modcollections.o
 .bss           0x0000000000000000        0x0 build/py/modcollections.o
 .debug_info    0x0000000000000000       0x64 build/py/modcollections.o
 .debug_abbrev  0x0000000000000000       0x29 build/py/modcollections.o
 .debug_pubnames
                0x0000000000000000       0x12 build/py/modcollections.o
 .debug_pubtypes
                0x0000000000000000       0xa8 build/py/modcollections.o
 .debug_aranges
                0x0000000000000000       0x20 build/py/modcollections.o
 .debug_line    0x0000000000000000       0x1e build/py/modcollections.o
 .debug_str     0x0000000000000000      0x209 build/py/modcollections.o
 .comment       0x0000000000000000       0x2c build/py/modcollections.o
 .note.GNU-stack
                0x0000000000000000        0x0 build/py/modcollections.o
 .note.gnu.property
                0x0000000000000000       0x20 build/py/modcollections.o
 .text          0x0000000000000000        0x0 build/py/modgc.o
 .data          0x0000000000000000        0x0 build/py/modgc.o
 .bss           0x0000000000000000        0x0 build/py/modgc.o
 .debug_info    0x0000000000000000       0x64 build/py/modgc.o
 .debug_abbrev  0x0000000000000000       0x29 build/py/modgc.o
 .debug_pubnames
                0x0000000000000000       0x12 build/py/modgc.o
 .debug_pubtypes
                0x0000000000000000       0xa8 build/py/modgc.o
 .debug_aranges
                0x0000000000000000       0x20 build/py/modgc.o
 .debug_line    0x0000000000000000       0x1e build/py/modgc.o
 .debug_str     0x0000000000000000      0x200 build/py/modgc.o
 .comment       0x0000000000000000       0x2c build/py/modgc.o
 .note.GNU-stack
                0x0000000000000000        0x0 build/py/modgc.o
 .note.gnu.property
                0x0000000000000000       0x20 build/py/modgc.o
 .text          0x0000000000000000        0x0 build/py/modio.o
 .data          0x0000000000000000        0x0 build/py/modio.o
 .bss           0x0000000000000000        0x0 build/py/modio.o
 .debug_info    0x0000000000000000       0x64 build/py/modio.o
 .debug_abbrev  0x0000000000000000       0x29 build/py/modio.o
 .debug_pubnames
                0x0000000000000000       0x12 build/py/modio.o
 .debug_pubtypes
                0x0000000000000000       0xa8 build/py/modio.o
 .debug_aranges
                0x0000000000000000       0x20 build/py/modio.o
 .debug_line    0x0000000000000000       0x1e build/py/modio.o
 .debug_str     0x0000000000000000      0x200 build/py/modio.o
 .comment       0x0000000000000000       0x2c build/py/modio.o
 .note.GNU-stack
                0x0000000000000000        0x0 build/py/modio.o
 .note.gnu.property
                0x0000000000000000       0x20 build/py/modio.o
 .text          0x0000000000000000        0x0 build/py/modmath.o
 .data          0x0000000000000000        0x0 build/py/modmath.o
 .bss           0x0000000000000000        0x0 build/py/modmath.o
 .debug_info    0x0000000000000000       0x64 build/py/modmath.o
 .debug_abbrev  0x0000000000000000       0x29 build/py/modmath.o
 .debug_pubnames
                0x0000000000000000       0x12 build/py/modmath.o
 .debug_pubtypes
                0x0000000000000000       0xa8 build/py/modmath.o
 .debug_aranges
                0x0000000000000000       0x20 build/py/modmath.o
 .debug_line    0x0000000000000000       0x1e build/py/modmath.o
 .debug_str     0x0000000000000000      0x202 build/py/modmath.o
 .comment       0x0000000000000000       0x2c build/py/modmath.o
 .note.GNU-stack
                0x0000000000000000        0x0 build/py/modmath.o
 .note.gnu.property
                0x0000000000000000       0x20 build/py/modmath.o
 .text          0x0000000000000000        0x0 build/py/modcmath.o
 .data          0x0000000000000000        0x0 build/py/modcmath.o
 .bss           0x0000000000000000        0x0 build/py/modcmath.o
 .debug_info    0x0000000000000000       0x64 build/py/modcmath.o
 .debug_abbrev  0x0000000000000000       0x29 build/py/modcmath.o
 .debug_pubnames
                0x0000000000000000       0x12 build/py/modcmath.o
 .debug_pubtypes
                0x0000000000000000       0xa8 build/py/modcmath.o
 .debug_aranges
                0x0000000000000000       0x20 build/py/modcmath.o
 .debug_line    0x0000000000000000       0x1e build/py/modcmath.o
 .debug_str     0x0000000000000000      0x203 build/py/modcmath.o
 .comment       0x0000000000000000       0x2c build/py/modcmath.o
 .note.GNU-stack
                0x0000000000000000        0x0 build/py/modcmath.o
 .note.gnu.property
                0x0000000000000000       0x20 build/py/modcmath.o
 .text          0x0000000000000000        0x0 build/py/modmicropython.o
 .data          0x0000000000000000        0x0 build/py/modmicropython.o
 .bss           0x0000000000000000        0x0 build/py/modmicropython.o
 .debug_info    0x0000000000000000       0x64 build/py/modmicropython.o
 .debug_abbrev  0x0000000000000000       0x29 build/py/modmicropython.o
 .debug_pubnames
                0x0000000000000000       0x12 build/py/modmicropython.o
 .debug_pubtypes
                0x0000000000000000       0xa8 build/py/modmicropython.o
 .debug_aranges
                0x0000000000000000       0x20 build/py/modmicropython.o
 .debug_line    0x0000000000000000       0x1e build/py/modmicropython.o
 .debug_str     0x0000000000000000      0x209 build/py/modmicropython.o
 .comment       0x0000000000000000       0x2c build/py/modmicropython.o
 .note.GNU-stack
                0x0000000000000000        0x0 build/py/modmicropython.o
 .note.gnu.property
                0x0000000000000000       0x20 build/py/modmicropython.o
 .text          0x0000000000000000        0x0 build/py/modstruct.o
 .data          0x0000000000000000        0x0 build/py/modstruct.o
 .bss           0x0000000000000000        0x0 build/py/modstruct.o
 .debug_info    0x0000000000000000       0x64 build/py/modstruct.o
 .debug_abbrev  0x0000000000000000       0x29 build/py/modstruct.o
 .debug_pubnames
                0x0000000000000000       0x12 build/py/modstruct.o
 .debug_pubtypes
                0x0000000000000000       0xa8 build/py/modstruct.o
 .debug_aranges
                0x0000000000000000       0x20 build/py/modstruct.o
 .debug_line    0x0000000000000000       0x1e build/py/modstruct.o
 .debug_str     0x0000000000000000      0x204 build/py/modstruct.o
 .comment       0x0000000000000000       0x2c build/py/modstruct.o
 .note.GNU-stack
                0x0000000000000000        0x0 build/py/modstruct.o
 .note.gnu.property
                0x0000000000000000       0x20 build/py/modstruct.o
 .data          0x0000000000000000       0x20 build/py/modsys.o
 .bss           0x0000000000000000        0x0 build/py/modsys.o
 .comment       0x0000000000000000       0x2c build/py/modsys.o
 .note.GNU-stack
                0x0000000000000000        0x0 build/py/modsys.o
 .note.gnu.property
                0x0000000000000000       0x20 build/py/modsys.o
 .text          0x0000000000000000        0x0 build/py/moderrno.o
 .data          0x0000000000000000        0x0 build/py/moderrno.o
 .bss           0x0000000000000000        0x0 build/py/moderrno.o
 .debug_info    0x0000000000000000       0x64 build/py/moderrno.o
 .debug_abbrev  0x0000000000000000       0x29 build/py/moderrno.o
 .debug_pubnames
                0x0000000000000000       0x12 build/py/moderrno.o
 .debug_pubtypes
                0x0000000000000000       0xa8 build/py/moderrno.o
 .debug_aranges
                0x0000000000000000       0x20 build/py/moderrno.o
 .debug_line    0x0000000000000000       0x1e build/py/moderrno.o
 .debug_str     0x0000000000000000      0x203 build/py/moderrno.o
 .comment       0x0000000000000000       0x2c build/py/moderrno.o
 .note.GNU-stack
                0x0000000000000000        0x0 build/py/moderrno.o
 .note.gnu.property
                0x0000000000000000       0x20 build/py/moderrno.o
 .text          0x0000000000000000        0x0 build/py/modthread.o
 .data          0x0000000000000000        0x0 build/py/modthread.o
 .bss           0x0000000000000000        0x0 build/py/modthread.o
 .debug_info    0x0000000000000000       0x64 build/py/modthread.o
 .debug_abbrev  0x0000000000000000       0x29 build/py/modthread.o
 .debug_pubnames
                0x0000000000000000       0x12 build/py/modthread.o
 .debug_pubtypes
                0x0000000000000000       0xa8 build/py/modthread.o
 .debug_aranges
                0x0000000000000000       0x20 build/py/modthread.o
 .debug_line    0x0000000000000000       0x1e build/py/modthread.o
 .debug_str     0x0000000000000000      0x204 build/py/modthread.o
 .comment       0x0000000000000000       0x2c build/py/modthread.o
 .note.GNU-stack
                0x0000000000000000        0x0 build/py/modthread.o
 .note.gnu.property
                0x0000000000000000       0x20 build/py/modthread.o
 .data          0x0000000000000000        0x0 build/py/vm.o
 .bss           0x0000000000000000        0x0 build/py/vm.o
 .comment       0x0000000000000000       0x2c build/py/vm.o
 .note.GNU-stack
                0x0000000000000000        0x0 build/py/vm.o
 .note.gnu.property
                0x0000000000000000       0x20 build/py/vm.o
 .data          0x0000000000000000        0x0 build/py/bc.o
 .bss           0x0000000000000000        0x0 build/py/bc.o
 .comment       0x0000000000000000       0x2c build/py/bc.o
 .note.GNU-stack
                0x0000000000000000        0x0 build/py/bc.o
 .note.gnu.property
                0x0000000000000000       0x20 build/py/bc.o
 .text          0x0000000000000000        0x0 build/py/showbc.o
 .data          0x0000000000000000        0x0 build/py/showbc.o
 .bss           0x0000000000000000        0x0 build/py/showbc.o
 .debug_info    0x0000000000000000       0x64 build/py/showbc.o
 .debug_abbrev  0x0000000000000000       0x29 build/py/showbc.o
 .debug_pubnames
                0x0000000000000000       0x12 build/py/showbc.o
 .debug_pubtypes
                0x0000000000000000       0xa8 build/py/showbc.o
 .debug_aranges
                0x0000000000000000       0x20 build/py/showbc.o
 .debug_line    0x0000000000000000       0x1e build/py/showbc.o
 .debug_str     0x0000000000000000      0x201 build/py/showbc.o
 .comment       0x0000000000000000       0x2c build/py/showbc.o
 .note.GNU-stack
                0x0000000000000000        0x0 build/py/showbc.o
 .note.gnu.property
                0x0000000000000000       0x20 build/py/showbc.o
 .text          0x0000000000000000      0x880 build/py/repl.o
 .data          0x0000000000000000        0x0 build/py/repl.o
 .bss           0x0000000000000000        0x0 build/py/repl.o
 .rodata.str1.1
                0x0000000000000000       0x2e build/py/repl.o
 .rodata        0x0000000000000000        0x8 build/py/repl.o
 .debug_info    0x0000000000000000     0x1a85 build/py/repl.o
 .debug_abbrev  0x0000000000000000      0x428 build/py/repl.o
 .debug_loc     0x0000000000000000     0x12d0 build/py/repl.o
 .debug_pubnames
                0x0000000000000000     0x172f build/py/repl.o
 .debug_pubtypes
                0x0000000000000000      0x428 build/py/repl.o
 .debug_aranges
                0x0000000000000000       0x30 build/py/repl.o
 .debug_ranges  0x0000000000000000      0x200 build/py/repl.o
 .debug_line    0x0000000000000000      0x73a build/py/repl.o
 .debug_str     0x0000000000000000     0x1cac build/py/repl.o
 .comment       0x0000000000000000       0x2c build/py/repl.o
 .note.GNU-stack
                0x0000000000000000        0x0 build/py/repl.o
 .note.gnu.property
                0x0000000000000000       0x20 build/py/repl.o
 .debug_frame   0x0000000000000000       0xf0 build/py/repl.o
 .data          0x0000000000000000        0x0 build/py/smallint.o
 .bss           0x0000000000000000        0x0 build/py/smallint.o
 .comment       0x0000000000000000       0x2c build/py/smallint.o
 .note.GNU-stack
                0x0000000000000000        0x0 build/py/smallint.o
 .note.gnu.property
                0x0000000000000000       0x20 build/py/smallint.o
 .text          0x0000000000000000        0x0 build/py/frozenmod.o
 .data          0x0000000000000000        0x0 build/py/frozenmod.o
 .bss           0x0000000000000000        0x0 build/py/frozenmod.o
 .debug_info    0x0000000000000000       0x64 build/py/frozenmod.o
 .debug_abbrev  0x0000000000000000       0x29 build/py/frozenmod.o
 .debug_pubnames
                0x0000000000000000       0x12 build/py/frozenmod.o
 .debug_pubtypes
                0x0000000000000000       0xa8 build/py/frozenmod.o
 .debug_aranges
                0x0000000000000000       0x20 build/py/frozenmod.o
 .debug_line    0x0000000000000000       0x1e build/py/frozenmod.o
 .debug_str     0x0000000000000000      0x204 build/py/frozenmod.o
 .comment       0x0000000000000000       0x2c build/py/frozenmod.o
 .note.GNU-stack
                0x0000000000000000        0x0 build/py/frozenmod.o
 .note.gnu.property
                0x0000000000000000       0x20 build/py/frozenmod.o
 .text          0x0000000000000000        0x0 build/extmod/machine_adc.o
 .data          0x0000000000000000        0x0 build/extmod/machine_adc.o
 .bss           0x0000000000000000        0x0 build/extmod/machine_adc.o
 .debug_info    0x0000000000000000       0x64 build/extmod/machine_adc.o
 .debug_abbrev  0x0000000000000000       0x29 build/extmod/machine_adc.o
 .debug_pubnames
                0x0000000000000000       0x12 build/extmod/machine_adc.o
 .debug_pubtypes
                0x0000000000000000       0xa8 build/extmod/machine_adc.o
 .debug_aranges
                0x0000000000000000       0x20 build/extmod/machine_adc.o
 .debug_line    0x0000000000000000       0x1e build/extmod/machine_adc.o
 .debug_str     0x0000000000000000      0x20a build/extmod/machine_adc.o
 .comment       0x0000000000000000       0x2c build/extmod/machine_adc.o
 .note.GNU-stack
                0x0000000000000000        0x0 build/extmod/machine_adc.o
 .note.gnu.property
                0x0000000000000000       0x20 build/extmod/machine_adc.o
 .text          0x0000000000000000        0x0 build/extmod/machine_adc_block.o
 .data          0x0000000000000000        0x0 build/extmod/machine_adc_block.o
 .bss           0x0000000000000000        0x0 build/extmod/machine_adc_block.o
 .debug_info    0x0000000000000000       0x64 build/extmod/machine_adc_block.o
 .debug_abbrev  0x0000000000000000       0x29 build/extmod/machine_adc_block.o
 .debug_pubnames
                0x0000000000000000       0x12 build/extmod/machine_adc_block.o
 .debug_pubtypes
                0x0000000000000000       0xa8 build/extmod/machine_adc_block.o
 .debug_aranges
                0x0000000000000000       0x20 build/extmod/machine_adc_block.o
 .debug_line    0x0000000000000000       0x1e build/extmod/machine_adc_block.o
 .debug_str     0x0000000000000000      0x210 build/extmod/machine_adc_block.o
 .comment       0x0000000000000000       0x2c build/extmod/machine_adc_block.o
 .note.GNU-stack
                0x0000000000000000        0x0 build/extmod/machine_adc_block.o
 .note.gnu.property
                0x0000000000000000       0x20 build/extmod/machine_adc_block.o
 .text          0x0000000000000000        0x0 build/extmod/machine_bitstream.o
 .data          0x0000000000000000        0x0 build/extmod/machine_bitstream.o
 .bss           0x0000000000000000        0x0 build/extmod/machine_bitstream.o
 .debug_info    0x0000000000000000       0x64 build/extmod/machine_bitstream.o
 .debug_abbrev  0x0000000000000000       0x29 build/extmod/machine_bitstream.o
 .debug_pubnames
                0x0000000000000000       0x12 build/extmod/machine_bitstream.o
 .debug_pubtypes
                0x0000000000000000       0xa8 build/extmod/machine_bitstream.o
 .debug_aranges
                0x0000000000000000       0x20 build/extmod/machine_bitstream.o
 .debug_line    0x0000000000000000       0x1e build/extmod/machine_bitstream.o
 .debug_str     0x0000000000000000      0x210 build/extmod/machine_bitstream.o
 .comment       0x0000000000000000       0x2c build/extmod/machine_bitstream.o
 .note.GNU-stack
                0x0000000000000000        0x0 build/extmod/machine_bitstream.o
 .note.gnu.property
                0x0000000000000000       0x20 build/extmod/machine_bitstream.o
 .text          0x0000000000000000        0x0 build/extmod/machine_i2c.o
 .data          0x0000000000000000        0x0 build/extmod/machine_i2c.o
 .bss           0x0000000000000000        0x0 build/extmod/machine_i2c.o
 .debug_info    0x0000000000000000       0x64 build/extmod/machine_i2c.o
 .debug_abbrev  0x0000000000000000       0x29 build/extmod/machine_i2c.o
 .debug_pubnames
                0x0000000000000000       0x12 build/extmod/machine_i2c.o
 .debug_pubtypes
                0x0000000000000000       0xa8 build/extmod/machine_i2c.o
 .debug_aranges
                0x0000000000000000       0x20 build/extmod/machine_i2c.o
 .debug_line    0x0000000000000000       0x1e build/extmod/machine_i2c.o
 .debug_str     0x0000000000000000      0x20a build/extmod/machine_i2c.o
 .comment       0x0000000000000000       0x2c build/extmod/machine_i2c.o
 .note.GNU-stack
                0x0000000000000000        0x0 build/extmod/machine_i2c.o
 .note.gnu.property
                0x0000000000000000       0x20 build/extmod/machine_i2c.o
 .text          0x0000000000000000        0x0 build/extmod/machine_i2s.o
 .data          0x0000000000000000        0x0 build/extmod/machine_i2s.o
 .bss           0x0000000000000000        0x0 build/extmod/machine_i2s.o
 .debug_info    0x0000000000000000       0x64 build/extmod/machine_i2s.o
 .debug_abbrev  0x0000000000000000       0x29 build/extmod/machine_i2s.o
 .debug_pubnames
                0x0000000000000000       0x12 build/extmod/machine_i2s.o
 .debug_pubtypes
                0x0000000000000000       0xa8 build/extmod/machine_i2s.o
 .debug_aranges
                0x0000000000000000       0x20 build/extmod/machine_i2s.o
 .debug_line    0x0000000000000000       0x1e build/extmod/machine_i2s.o
 .debug_str     0x0000000000000000      0x20a build/extmod/machine_i2s.o
 .comment       0x0000000000000000       0x2c build/extmod/machine_i2s.o
 .note.GNU-stack
                0x0000000000000000        0x0 build/extmod/machine_i2s.o
 .note.gnu.property
                0x0000000000000000       0x20 build/extmod/machine_i2s.o
 .data          0x0000000000000000        0x0 build/extmod/machine_mem.o
 .bss           0x0000000000000000        0x0 build/extmod/machine_mem.o
 .comment       0x0000000000000000       0x2c build/extmod/machine_mem.o
 .note.GNU-stack
                0x0000000000000000        0x0 build/extmod/machine_mem.o
 .note.gnu.property
                0x0000000000000000       0x20 build/extmod/machine_mem.o
 .data          0x0000000000000000        0x0 build/extmod/machine_pinbase.o
 .bss           0x0000000000000000        0x0 build/extmod/machine_pinbase.o
 .comment       0x0000000000000000       0x2c build/extmod/machine_pinbase.o
 .note.GNU-stack
                0x0000000000000000        0x0 build/extmod/machine_pinbase.o
 .note.gnu.property
                0x0000000000000000       0x20 build/extmod/machine_pinbase.o
 .data          0x0000000000000000        0x0 build/extmod/machine_pulse.o
 .bss           0x0000000000000000        0x0 build/extmod/machine_pulse.o
 .comment       0x0000000000000000       0x2c build/extmod/machine_pulse.o
 .note.GNU-stack
                0x0000000000000000        0x0 build/extmod/machine_pulse.o
 .note.gnu.property
                0x0000000000000000       0x20 build/extmod/machine_pulse.o
 .text          0x0000000000000000        0x0 build/extmod/machine_pwm.o
 .data          0x0000000000000000        0x0 build/extmod/machine_pwm.o
 .bss           0x0000000000000000        0x0 build/extmod/machine_pwm.o
 .debug_info    0x0000000000000000       0x64 build/extmod/machine_pwm.o
 .debug_abbrev  0x0000000000000000       0x29 build/extmod/machine_pwm.o
 .debug_pubnames
                0x0000000000000000       0x12 build/extmod/machine_pwm.o
 .debug_pubtypes
                0x0000000000000000       0xa8 build/extmod/machine_pwm.o
 .debug_aranges
                0x0000000000000000       0x20 build/extmod/machine_pwm.o
 .debug_line    0x0000000000000000       0x1e build/extmod/machine_pwm.o
 .debug_str     0x0000000000000000      0x20a build/extmod/machine_pwm.o
 .comment       0x0000000000000000       0x2c build/extmod/machine_pwm.o
 .note.GNU-stack
                0x0000000000000000        0x0 build/extmod/machine_pwm.o
 .note.gnu.property
                0x0000000000000000       0x20 build/extmod/machine_pwm.o
 .data          0x0000000000000000        0x0 build/extmod/machine_signal.o
 .bss           0x0000000000000000        0x0 build/extmod/machine_signal.o
 .comment       0x0000000000000000       0x2c build/extmod/machine_signal.o
 .note.GNU-stack
                0x0000000000000000        0x0 build/extmod/machine_signal.o
 .note.gnu.property
                0x0000000000000000       0x20 build/extmod/machine_signal.o
 .text          0x0000000000000000        0x0 build/extmod/machine_spi.o
 .data          0x0000000000000000        0x0 build/extmod/machine_spi.o
 .bss           0x0000000000000000        0x0 build/extmod/machine_spi.o
 .debug_info    0x0000000000000000       0x64 build/extmod/machine_spi.o
 .debug_abbrev  0x0000000000000000       0x29 build/extmod/machine_spi.o
 .debug_pubnames
                0x0000000000000000       0x12 build/extmod/machine_spi.o
 .debug_pubtypes
                0x0000000000000000       0xa8 build/extmod/machine_spi.o
 .debug_aranges
                0x0000000000000000       0x20 build/extmod/machine_spi.o
 .debug_line    0x0000000000000000       0x1e build/extmod/machine_spi.o
 .debug_str     0x0000000000000000      0x20a build/extmod/machine_spi.o
 .comment       0x0000000000000000       0x2c build/extmod/machine_spi.o
 .note.GNU-stack
                0x0000000000000000        0x0 build/extmod/machine_spi.o
 .note.gnu.property
                0x0000000000000000       0x20 build/extmod/machine_spi.o
 .text          0x0000000000000000        0x0 build/extmod/machine_timer.o
 .data          0x0000000000000000        0x0 build/extmod/machine_timer.o
 .bss           0x0000000000000000        0x0 build/extmod/machine_timer.o
 .debug_info    0x0000000000000000       0x64 build/extmod/machine_timer.o
 .debug_abbrev  0x0000000000000000       0x29 build/extmod/machine_timer.o
 .debug_pubnames
                0x0000000000000000       0x12 build/extmod/machine_timer.o
 .debug_pubtypes
                0x0000000000000000       0xa8 build/extmod/machine_timer.o
 .debug_aranges
                0x0000000000000000       0x20 build/extmod/machine_timer.o
 .debug_line    0x0000000000000000       0x1e build/extmod/machine_timer.o
 .debug_str     0x0000000000000000      0x20c build/extmod/machine_timer.o
 .comment       0x0000000000000000       0x2c build/extmod/machine_timer.o
 .note.GNU-stack
                0x0000000000000000        0x0 build/extmod/machine_timer.o
 .note.gnu.property
                0x0000000000000000       0x20 build/extmod/machine_timer.o
 .text          0x0000000000000000        0x0 build/extmod/machine_uart.o
 .data          0x0000000000000000        0x0 build/extmod/machine_uart.o
 .bss           0x0000000000000000        0x0 build/extmod/machine_uart.o
 .debug_info    0x0000000000000000       0x64 build/extmod/machine_uart.o
 .debug_abbrev  0x0000000000000000       0x29 build/extmod/machine_uart.o
 .debug_pubnames
                0x0000000000000000       0x12 build/extmod/machine_uart.o
 .debug_pubtypes
                0x0000000000000000       0xa8 build/extmod/machine_uart.o
 .debug_aranges
                0x0000000000000000       0x20 build/extmod/machine_uart.o
 .debug_line    0x0000000000000000       0x1e build/extmod/machine_uart.o
 .debug_str     0x0000000000000000      0x20b build/extmod/machine_uart.o
 .comment       0x0000000000000000       0x2c build/extmod/machine_uart.o
 .note.GNU-stack
                0x0000000000000000        0x0 build/extmod/machine_uart.o
 .note.gnu.property
                0x0000000000000000       0x20 build/extmod/machine_uart.o
 .text          0x0000000000000000        0x0 build/extmod/machine_usb_device.o
 .data          0x0000000000000000        0x0 build/extmod/machine_usb_device.o
 .bss           0x0000000000000000        0x0 build/extmod/machine_usb_device.o
 .debug_info    0x0000000000000000       0x64 build/extmod/machine_usb_device.o
 .debug_abbrev  0x0000000000000000       0x29 build/extmod/machine_usb_device.o
 .debug_pubnames
                0x0000000000000000       0x12 build/extmod/machine_usb_device.o
 .debug_pubtypes
                0x0000000000000000       0xa8 build/extmod/machine_usb_device.o
 .debug_aranges
                0x0000000000000000       0x20 build/extmod/machine_usb_device.o
 .debug_line    0x0000000000000000       0x1e build/extmod/machine_usb_device.o
 .debug_str     0x0000000000000000      0x211 build/extmod/machine_usb_device.o
 .comment       0x0000000000000000       0x2c build/extmod/machine_usb_device.o
 .note.GNU-stack
                0x0000000000000000        0x0 build/extmod/machine_usb_device.o
 .note.gnu.property
                0x0000000000000000       0x20 build/extmod/machine_usb_device.o
 .text          0x0000000000000000        0x0 build/extmod/machine_wdt.o
 .data          0x0000000000000000        0x0 build/extmod/machine_wdt.o
 .bss           0x0000000000000000        0x0 build/extmod/machine_wdt.o
 .debug_info    0x0000000000000000       0x64 build/extmod/machine_wdt.o
 .debug_abbrev  0x0000000000000000       0x29 build/extmod/machine_wdt.o
 .debug_pubnames
                0x0000000000000000       0x12 build/extmod/machine_wdt.o
 .debug_pubtypes
                0x0000000000000000       0xa8 build/extmod/machine_wdt.o
 .debug_aranges
                0x0000000000000000       0x20 build/extmod/machine_wdt.o
 .debug_line    0x0000000000000000       0x1e build/extmod/machine_wdt.o
 .debug_str     0x0000000000000000      0x20a build/extmod/machine_wdt.o
 .comment       0x0000000000000000       0x2c build/extmod/machine_wdt.o
 .note.GNU-stack
                0x0000000000000000        0x0 build/extmod/machine_wdt.o
 .note.gnu.property
                0x0000000000000000       0x20 build/extmod/machine_wdt.o
 .text          0x0000000000000000        0x0 build/extmod/modasyncio.o
 .data          0x0000000000000000        0x0 build/extmod/modasyncio.o
 .bss           0x0000000000000000        0x0 build/extmod/modasyncio.o
 .debug_info    0x0000000000000000       0x64 build/extmod/modasyncio.o
 .debug_abbrev  0x0000000000000000       0x29 build/extmod/modasyncio.o
 .debug_pubnames
                0x0000000000000000       0x12 build/extmod/modasyncio.o
 .debug_pubtypes
                0x0000000000000000       0xa8 build/extmod/modasyncio.o
 .debug_aranges
                0x0000000000000000       0x20 build/extmod/modasyncio.o
 .debug_line    0x0000000000000000       0x1e build/extmod/modasyncio.o
 .debug_str     0x0000000000000000      0x209 build/extmod/modasyncio.o
 .comment       0x0000000000000000       0x2c build/extmod/modasyncio.o
 .note.GNU-stack
                0x0000000000000000        0x0 build/extmod/modasyncio.o
 .note.gnu.property
                0x0000000000000000       0x20 build/extmod/modasyncio.o
 .text          0x0000000000000000        0x0 build/extmod/modbinascii.o
 .data          0x0000000000000000        0x0 build/extmod/modbinascii.o
 .bss           0x0000000000000000        0x0 build/extmod/modbinascii.o
 .debug_info    0x0000000000000000       0x64 build/extmod/modbinascii.o
 .debug_abbrev  0x0000000000000000       0x29 build/extmod/modbinascii.o
 .debug_pubnames
                0x0000000000000000       0x12 build/extmod/modbinascii.o
 .debug_pubtypes
                0x0000000000000000       0xa8 build/extmod/modbinascii.o
 .debug_aranges
                0x0000000000000000       0x20 build/extmod/modbinascii.o
 .debug_line    0x0000000000000000       0x1e build/extmod/modbinascii.o
 .debug_str     0x0000000000000000      0x20a build/extmod/modbinascii.o
 .comment       0x0000000000000000       0x2c build/extmod/modbinascii.o
 .note.GNU-stack
                0x0000000000000000        0x0 build/extmod/modbinascii.o
 .note.gnu.property
                0x0000000000000000       0x20 build/extmod/modbinascii.o
 .text          0x0000000000000000        0x0 build/extmod/modbluetooth.o
 .data          0x0000000000000000        0x0 build/extmod/modbluetooth.o
 .bss           0x0000000000000000        0x0 build/extmod/modbluetooth.o
 .debug_info    0x0000000000000000       0x64 build/extmod/modbluetooth.o
 .debug_abbrev  0x0000000000000000       0x29 build/extmod/modbluetooth.o
 .debug_pubnames
                0x0000000000000000       0x12 build/extmod/modbluetooth.o
 .debug_pubtypes
                0x0000000000000000       0xa8 build/extmod/modbluetooth.o
 .debug_aranges
                0x0000000000000000       0x20 build/extmod/modbluetooth.o
 .debug_line    0x0000000000000000       0x1e build/extmod/modbluetooth.o
 .debug_str     0x0000000000000000      0x20b build/extmod/modbluetooth.o
 .comment       0x0000000000000000       0x2c build/extmod/modbluetooth.o
 .note.GNU-stack
                0x0000000000000000        0x0 build/extmod/modbluetooth.o
 .note.gnu.property
                0x0000000000000000       0x20 build/extmod/modbluetooth.o
 .text          0x0000000000000000        0x0 build/extmod/modbtree.o
 .data          0x0000000000000000        0x0 build/extmod/modbtree.o
 .bss           0x0000000000000000        0x0 build/extmod/modbtree.o
 .debug_info    0x0000000000000000       0x64 build/extmod/modbtree.o
 .debug_abbrev  0x0000000000000000       0x29 build/extmod/modbtree.o
 .debug_pubnames
                0x0000000000000000       0x12 build/extmod/modbtree.o
 .debug_pubtypes
                0x0000000000000000       0xa8 build/extmod/modbtree.o
 .debug_aranges
                0x0000000000000000       0x20 build/extmod/modbtree.o
 .debug_line    0x0000000000000000       0x1e build/extmod/modbtree.o
 .debug_str     0x0000000000000000      0x207 build/extmod/modbtree.o
 .comment       0x0000000000000000       0x2c build/extmod/modbtree.o
 .note.GNU-stack
                0x0000000000000000        0x0 build/extmod/modbtree.o
 .note.gnu.property
                0x0000000000000000       0x20 build/extmod/modbtree.o
 .text          0x0000000000000000        0x0 build/extmod/modcryptolib.o
 .data          0x0000000000000000        0x0 build/extmod/modcryptolib.o
 .bss           0x0000000000000000        0x0 build/extmod/modcryptolib.o
 .debug_info    0x0000000000000000       0x64 build/extmod/modcryptolib.o
 .debug_abbrev  0x0000000000000000       0x29 build/extmod/modcryptolib.o
 .debug_pubnames
                0x0000000000000000       0x12 build/extmod/modcryptolib.o
 .debug_pubtypes
                0x0000000000000000       0xa8 build/extmod/modcryptolib.o
 .debug_aranges
                0x0000000000000000       0x20 build/extmod/modcryptolib.o
 .debug_line    0x0000000000000000       0x1e build/extmod/modcryptolib.o
 .debug_str     0x0000000000000000      0x20b build/extmod/modcryptolib.o
 .comment       0x0000000000000000       0x2c build/extmod/modcryptolib.o
 .note.GNU-stack
                0x0000000000000000        0x0 build/extmod/modcryptolib.o
 .note.gnu.property
                0x0000000000000000       0x20 build/extmod/modcryptolib.o
 .text          0x0000000000000000        0x0 build/extmod/moddeflate.o
 .data          0x0000000000000000        0x0 build/extmod/moddeflate.o
 .bss           0x0000000000000000        0x0 build/extmod/moddeflate.o
 .debug_info    0x0000000000000000       0x64 build/extmod/moddeflate.o
 .debug_abbrev  0x0000000000000000       0x29 build/extmod/moddeflate.o
 .debug_pubnames
                0x0000000000000000       0x12 build/extmod/moddeflate.o
 .debug_pubtypes
                0x0000000000000000       0xa8 build/extmod/moddeflate.o
 .debug_aranges
                0x0000000000000000       0x20 build/extmod/moddeflate.o
 .debug_line    0x0000000000000000       0x1e build/extmod/moddeflate.o
 .debug_str     0x0000000000000000      0x209 build/extmod/moddeflate.o
 .comment       0x0000000000000000       0x2c build/extmod/moddeflate.o
 .note.GNU-stack
                0x0000000000000000        0x0 build/extmod/moddeflate.o
 .note.gnu.property
                0x0000000000000000       0x20 build/extmod/moddeflate.o
 .text          0x0000000000000000        0x0 build/extmod/modframebuf.o
 .data          0x0000000000000000        0x0 build/extmod/modframebuf.o
 .bss           0x0000000000000000        0x0 build/extmod/modframebuf.o
 .debug_info    0x0000000000000000       0x64 build/extmod/modframebuf.o
 .debug_abbrev  0x0000000000000000       0x29 build/extmod/modframebuf.o
 .debug_pubnames
                0x0000000000000000       0x12 build/extmod/modframebuf.o
 .debug_pubtypes
                0x0000000000000000       0xa8 build/extmod/modframebuf.o
 .debug_aranges
                0x0000000000000000       0x20 build/extmod/modframebuf.o
 .debug_line    0x0000000000000000       0x1e build/extmod/modframebuf.o
 .debug_str     0x0000000000000000      0x20a build/extmod/modframebuf.o
 .comment       0x0000000000000000       0x2c build/extmod/modframebuf.o
 .note.GNU-stack
                0x0000000000000000        0x0 build/extmod/modframebuf.o
 .note.gnu.property
                0x0000000000000000       0x20 build/extmod/modframebuf.o
 .text          0x0000000000000000        0x0 build/extmod/modhashlib.o
 .data          0x0000000000000000        0x0 build/extmod/modhashlib.o
 .bss           0x0000000000000000        0x0 build/extmod/modhashlib.o
 .debug_info    0x0000000000000000       0x64 build/extmod/modhashlib.o
 .debug_abbrev  0x0000000000000000       0x29 build/extmod/modhashlib.o
 .debug_pubnames
                0x0000000000000000       0x12 build/extmod/modhashlib.o
 .debug_pubtypes
                0x0000000000000000       0xa8 build/extmod/modhashlib.o
 .debug_aranges
                0x0000000000000000       0x20 build/extmod/modhashlib.o
 .debug_line    0x0000000000000000       0x1e build/extmod/modhashlib.o
 .debug_str     0x0000000000000000      0x209 build/extmod/modhashlib.o
 .comment       0x0000000000000000       0x2c build/extmod/modhashlib.o
 .note.GNU-stack
                0x0000000000000000        0x0 build/extmod/modhashlib.o
 .note.gnu.property
                0x0000000000000000       0x20 build/extmod/modhashlib.o
 .text          0x0000000000000000        0x0 build/extmod/modheapq.o
 .data          0x0000000000000000        0x0 build/extmod/modheapq.o
 .bss           0x0000000000000000        0x0 build/extmod/modheapq.o
 .debug_info    0x0000000000000000       0x64 build/extmod/modheapq.o
 .debug_abbrev  0x0000000000000000       0x29 build/extmod/modheapq.o
 .debug_pubnames
                0x0000000000000000       0x12 build/extmod/modheapq.o
 .debug_pubtypes
                0x0000000000000000       0xa8 build/extmod/modheapq.o
 .debug_aranges
                0x0000000000000000       0x20 build/extmod/modheapq.o
 .debug_line    0x0000000000000000       0x1e build/extmod/modheapq.o
 .debug_str     0x0000000000000000      0x207 build/extmod/modheapq.o
 .comment       0x0000000000000000       0x2c build/extmod/modheapq.o
 .note.GNU-stack
                0x0000000000000000        0x0 build/extmod/modheapq.o
 .note.gnu.property
                0x0000000000000000       0x20 build/extmod/modheapq.o
 .text          0x0000000000000000        0x0 build/extmod/modjson.o
 .data          0x0000000000000000        0x0 build/extmod/modjson.o
 .bss           0x0000000000000000        0x0 build/extmod/modjson.o
 .debug_info    0x0000000000000000       0x64 build/extmod/modjson.o
 .debug_abbrev  0x0000000000000000       0x29 build/extmod/modjson.o
 .debug_pubnames
                0x0000000000000000       0x12 build/extmod/modjson.o
 .debug_pubtypes
                0x0000000000000000       0xa8 build/extmod/modjson.o
 .debug_aranges
                0x0000000000000000       0x20 build/extmod/modjson.o
 .debug_line    0x0000000000000000       0x1e build/extmod/modjson.o
 .debug_str     0x0000000000000000      0x206 build/extmod/modjson.o
 .comment       0x0000000000000000       0x2c build/extmod/modjson.o
 .note.GNU-stack
                0x0000000000000000        0x0 build/extmod/modjson.o
 .note.gnu.property
                0x0000000000000000       0x20 build/extmod/modjson.o
 .text          0x0000000000000000        0x0 build/extmod/modlwip.o
 .data          0x0000000000000000        0x0 build/extmod/modlwip.o
 .bss           0x0000000000000000        0x0 build/extmod/modlwip.o
 .debug_info    0x0000000000000000       0x64 build/extmod/modlwip.o
 .debug_abbrev  0x0000000000000000       0x29 build/extmod/modlwip.o
 .debug_pubnames
                0x0000000000000000       0x12 build/extmod/modlwip.o
 .debug_pubtypes
                0x0000000000000000       0xa8 build/extmod/modlwip.o
 .debug_aranges
                0x0000000000000000       0x20 build/extmod/modlwip.o
 .debug_line    0x0000000000000000       0x1e build/extmod/modlwip.o
 .debug_str     0x0000000000000000      0x206 build/extmod/modlwip.o
 .comment       0x0000000000000000       0x2c build/extmod/modlwip.o
 .note.GNU-stack
                0x0000000000000000        0x0 build/extmod/modlwip.o
 .note.gnu.property
                0x0000000000000000       0x20 build/extmod/modlwip.o
 .data          0x0000000000000000        0x0 build/extmod/modmachine.o
 .comment       0x0000000000000000       0x2c build/extmod/modmachine.o
 .note.GNU-stack
                0x0000000000000000        0x0 build/extmod/modmachine.o
 .note.gnu.property
                0x0000000000000000       0x20 build/extmod/modmachine.o
 .text          0x0000000000000000        0x0 build/extmod/modnetwork.o
 .data          0x0000000000000000        0x0 build/extmod/modnetwork.o
 .bss           0x0000000000000000        0x0 build/extmod/modnetwork.o
 .debug_info    0x0000000000000000       0x64 build/extmod/modnetwork.o
 .debug_abbrev  0x0000000000000000       0x29 build/extmod/modnetwork.o
 .debug_pubnames
                0x0000000000000000       0x12 build/extmod/modnetwork.o
 .debug_pubtypes
                0x0000000000000000       0xa8 build/extmod/modnetwork.o
 .debug_aranges
                0x0000000000000000       0x20 build/extmod/modnetwork.o
 .debug_line    0x0000000000000000       0x1e build/extmod/modnetwork.o
 .debug_str     0x0000000000000000      0x209 build/extmod/modnetwork.o
 .comment       0x0000000000000000       0x2c build/extmod/modnetwork.o
 .note.GNU-stack
                0x0000000000000000        0x0 build/extmod/modnetwork.o
 .note.gnu.property
                0x0000000000000000       0x20 build/extmod/modnetwork.o
 .text          0x0000000000000000        0x0 build/extmod/modonewire.o
 .data          0x0000000000000000        0x0 build/extmod/modonewire.o
 .bss           0x0000000000000000        0x0 build/extmod/modonewire.o
 .debug_info    0x0000000000000000       0x64 build/extmod/modonewire.o
 .debug_abbrev  0x0000000000000000       0x29 build/extmod/modonewire.o
 .debug_pubnames
                0x0000000000000000       0x12 build/extmod/modonewire.o
 .debug_pubtypes
                0x0000000000000000       0xa8 build/extmod/modonewire.o
 .debug_aranges
                0x0000000000000000       0x20 build/extmod/modonewire.o
 .debug_line    0x0000000000000000       0x1e build/extmod/modonewire.o
 .debug_str     0x0000000000000000      0x209 build/extmod/modonewire.o
 .comment       0x0000000000000000       0x2c build/extmod/modonewire.o
 .note.GNU-stack
                0x0000000000000000        0x0 build/extmod/modonewire.o
 .note.gnu.property
                0x0000000000000000       0x20 build/extmod/modonewire.o
 .text          0x0000000000000000        0x0 build/extmod/modopenamp.o
 .data          0x0000000000000000        0x0 build/extmod/modopenamp.o
 .bss           0x0000000000000000        0x0 build/extmod/modopenamp.o
 .debug_line    0x0000000000000000        0x0 build/extmod/modopenamp.o
 .debug_str     0x0000000000000000      0x19f build/extmod/modopenamp.o
 .comment       0x0000000000000000       0x2c build/extmod/modopenamp.o
 .note.GNU-stack
                0x0000000000000000        0x0 build/extmod/modopenamp.o
 .note.gnu.property
                0x0000000000000000       0x20 build/extmod/modopenamp.o
 .text          0x0000000000000000        0x0 build/extmod/modopenamp_remoteproc.o
 .data          0x0000000000000000        0x0 build/extmod/modopenamp_remoteproc.o
 .bss           0x0000000000000000        0x0 build/extmod/modopenamp_remoteproc.o
 .debug_line    0x0000000000000000        0x0 build/extmod/modopenamp_remoteproc.o
 .debug_str     0x0000000000000000      0x1aa build/extmod/modopenamp_remoteproc.o
 .comment       0x0000000000000000       0x2c build/extmod/modopenamp_remoteproc.o
 .note.GNU-stack
                0x0000000000000000        0x0 build/extmod/modopenamp_remoteproc.o
 .note.gnu.property
                0x0000000000000000       0x20 build/extmod/modopenamp_remoteproc.o
 .text          0x0000000000000000        0x0 build/extmod/modopenamp_remoteproc_store.o
 .data          0x0000000000000000        0x0 build/extmod/modopenamp_remoteproc_store.o
 .bss           0x0000000000000000        0x0 build/extmod/modopenamp_remoteproc_store.o
 .debug_line    0x0000000000000000        0x0 build/extmod/modopenamp_remoteproc_store.o
 .debug_str     0x0000000000000000      0x1b0 build/extmod/modopenamp_remoteproc_store.o
 .comment       0x0000000000000000       0x2c build/extmod/modopenamp_remoteproc_store.o
 .note.GNU-stack
                0x0000000000000000        0x0 build/extmod/modopenamp_remoteproc_store.o
 .note.gnu.property
                0x0000000000000000       0x20 build/extmod/modopenamp_remoteproc_store.o
 .data          0x0000000000000000        0x0 build/extmod/modos.o
 .bss           0x0000000000000000        0x0 build/extmod/modos.o
 .comment       0x0000000000000000       0x2c build/extmod/modos.o
 .note.GNU-stack
                0x0000000000000000        0x0 build/extmod/modos.o
 .note.gnu.property
                0x0000000000000000       0x20 build/extmod/modos.o
 .text          0x0000000000000000        0x0 build/extmod/modplatform.o
 .data          0x0000000000000000        0x0 build/extmod/modplatform.o
 .bss           0x0000000000000000        0x0 build/extmod/modplatform.o
 .debug_info    0x0000000000000000       0x64 build/extmod/modplatform.o
 .debug_abbrev  0x0000000000000000       0x29 build/extmod/modplatform.o
 .debug_pubnames
                0x0000000000000000       0x12 build/extmod/modplatform.o
 .debug_pubtypes
                0x0000000000000000       0xa8 build/extmod/modplatform.o
 .debug_aranges
                0x0000000000000000       0x20 build/extmod/modplatform.o
 .debug_line    0x0000000000000000       0x1e build/extmod/modplatform.o
 .debug_str     0x0000000000000000      0x20a build/extmod/modplatform.o
 .comment       0x0000000000000000       0x2c build/extmod/modplatform.o
 .note.GNU-stack
                0x0000000000000000        0x0 build/extmod/modplatform.o
 .note.gnu.property
                0x0000000000000000       0x20 build/extmod/modplatform.o
 .text          0x0000000000000000        0x0 build/extmod/modrandom.o
 .data          0x0000000000000000        0x0 build/extmod/modrandom.o
 .bss           0x0000000000000000        0x0 build/extmod/modrandom.o
 .debug_info    0x0000000000000000       0x64 build/extmod/modrandom.o
 .debug_abbrev  0x0000000000000000       0x29 build/extmod/modrandom.o
 .debug_pubnames
                0x0000000000000000       0x12 build/extmod/modrandom.o
 .debug_pubtypes
                0x0000000000000000       0xa8 build/extmod/modrandom.o
 .debug_aranges
                0x0000000000000000       0x20 build/extmod/modrandom.o
 .debug_line    0x0000000000000000       0x1e build/extmod/modrandom.o
 .debug_str     0x0000000000000000      0x208 build/extmod/modrandom.o
 .comment       0x0000000000000000       0x2c build/extmod/modrandom.o
 .note.GNU-stack
                0x0000000000000000        0x0 build/extmod/modrandom.o
 .note.gnu.property
                0x0000000000000000       0x20 build/extmod/modrandom.o
 .text          0x0000000000000000        0x0 build/extmod/modre.o
 .data          0x0000000000000000        0x0 build/extmod/modre.o
 .bss           0x0000000000000000        0x0 build/extmod/modre.o
 .debug_info    0x0000000000000000       0x64 build/extmod/modre.o
 .debug_abbrev  0x0000000000000000       0x29 build/extmod/modre.o
 .debug_pubnames
                0x0000000000000000       0x12 build/extmod/modre.o
 .debug_pubtypes
                0x0000000000000000       0xa8 build/extmod/modre.o
 .debug_aranges
                0x0000000000000000       0x20 build/extmod/modre.o
 .debug_line    0x0000000000000000       0x1e build/extmod/modre.o
 .debug_str     0x0000000000000000      0x204 build/extmod/modre.o
 .comment       0x0000000000000000       0x2c build/extmod/modre.o
 .note.GNU-stack
                0x0000000000000000        0x0 build/extmod/modre.o
 .note.gnu.property
                0x0000000000000000       0x20 build/extmod/modre.o
 .text          0x0000000000000000        0x0 build/extmod/modselect.o
 .data          0x0000000000000000        0x0 build/extmod/modselect.o
 .bss           0x0000000000000000        0x0 build/extmod/modselect.o
 .debug_info    0x0000000000000000       0x64 build/extmod/modselect.o
 .debug_abbrev  0x0000000000000000       0x29 build/extmod/modselect.o
 .debug_pubnames
                0x0000000000000000       0x12 build/extmod/modselect.o
 .debug_pubtypes
                0x0000000000000000       0xa8 build/extmod/modselect.o
 .debug_aranges
                0x0000000000000000       0x20 build/extmod/modselect.o
 .debug_line    0x0000000000000000       0x1e build/extmod/modselect.o
 .debug_str     0x0000000000000000      0x208 build/extmod/modselect.o
 .comment       0x0000000000000000       0x2c build/extmod/modselect.o
 .note.GNU-stack
                0x0000000000000000        0x0 build/extmod/modselect.o
 .note.gnu.property
                0x0000000000000000       0x20 build/extmod/modselect.o
 .text          0x0000000000000000        0x0 build/extmod/modsocket.o
 .data          0x0000000000000000        0x0 build/extmod/modsocket.o
 .bss           0x0000000000000000        0x0 build/extmod/modsocket.o
 .debug_info    0x0000000000000000       0x64 build/extmod/modsocket.o
 .debug_abbrev  0x0000000000000000       0x29 build/extmod/modsocket.o
 .debug_pubnames
                0x0000000000000000       0x12 build/extmod/modsocket.o
 .debug_pubtypes
                0x0000000000000000       0xa8 build/extmod/modsocket.o
 .debug_aranges
                0x0000000000000000       0x20 build/extmod/modsocket.o
 .debug_line    0x0000000000000000       0x1e build/extmod/modsocket.o
 .debug_str     0x0000000000000000      0x208 build/extmod/modsocket.o
 .comment       0x0000000000000000       0x2c build/extmod/modsocket.o
 .note.GNU-stack
                0x0000000000000000        0x0 build/extmod/modsocket.o
 .note.gnu.property
                0x0000000000000000       0x20 build/extmod/modsocket.o
 .text          0x0000000000000000        0x0 build/extmod/modtls_axtls.o
 .data          0x0000000000000000        0x0 build/extmod/modtls_axtls.o
 .bss           0x0000000000000000        0x0 build/extmod/modtls_axtls.o
 .debug_info    0x0000000000000000       0x64 build/extmod/modtls_axtls.o
 .debug_abbrev  0x0000000000000000       0x29 build/extmod/modtls_axtls.o
 .debug_pubnames
                0x0000000000000000       0x12 build/extmod/modtls_axtls.o
 .debug_pubtypes
                0x0000000000000000       0xa8 build/extmod/modtls_axtls.o
 .debug_aranges
                0x0000000000000000       0x20 build/extmod/modtls_axtls.o
 .debug_line    0x0000000000000000       0x1e build/extmod/modtls_axtls.o
 .debug_str     0x0000000000000000      0x20b build/extmod/modtls_axtls.o
 .comment       0x0000000000000000       0x2c build/extmod/modtls_axtls.o
 .note.GNU-stack
                0x0000000000000000        0x0 build/extmod/modtls_axtls.o
 .note.gnu.property
                0x0000000000000000       0x20 build/extmod/modtls_axtls.o
 .text          0x0000000000000000        0x0 build/extmod/modtls_mbedtls.o
 .data          0x0000000000000000        0x0 build/extmod/modtls_mbedtls.o
 .bss           0x0000000000000000        0x0 build/extmod/modtls_mbedtls.o
 .debug_info    0x0000000000000000       0x64 build/extmod/modtls_mbedtls.o
 .debug_abbrev  0x0000000000000000       0x29 build/extmod/modtls_mbedtls.o
 .debug_pubnames
                0x0000000000000000       0x12 build/extmod/modtls_mbedtls.o
 .debug_pubtypes
                0x0000000000000000       0xa8 build/extmod/modtls_mbedtls.o
 .debug_aranges
                0x0000000000000000       0x20 build/extmod/modtls_mbedtls.o
 .debug_line    0x0000000000000000       0x1e build/extmod/modtls_mbedtls.o
 .debug_str     0x0000000000000000      0x20d build/extmod/modtls_mbedtls.o
 .comment       0x0000000000000000       0x2c build/extmod/modtls_mbedtls.o
 .note.GNU-stack
                0x0000000000000000        0x0 build/extmod/modtls_mbedtls.o
 .note.gnu.property
                0x0000000000000000       0x20 build/extmod/modtls_mbedtls.o
 .data          0x0000000000000000        0x0 build/extmod/modtime.o
 .bss           0x0000000000000000        0x0 build/extmod/modtime.o
 .comment       0x0000000000000000       0x2c build/extmod/modtime.o
 .note.GNU-stack
                0x0000000000000000        0x0 build/extmod/modtime.o
 .note.gnu.property
                0x0000000000000000       0x20 build/extmod/modtime.o
 .text          0x0000000000000000        0x0 build/extmod/moductypes.o
 .data          0x0000000000000000        0x0 build/extmod/moductypes.o
 .bss           0x0000000000000000        0x0 build/extmod/moductypes.o
 .debug_info    0x0000000000000000       0x64 build/extmod/moductypes.o
 .debug_abbrev  0x0000000000000000       0x29 build/extmod/moductypes.o
 .debug_pubnames
                0x0000000000000000       0x12 build/extmod/moductypes.o
 .debug_pubtypes
                0x0000000000000000       0xa8 build/extmod/moductypes.o
 .debug_aranges
                0x0000000000000000       0x20 build/extmod/moductypes.o
 .debug_line    0x0000000000000000       0x1e build/extmod/moductypes.o
 .debug_str     0x0000000000000000      0x209 build/extmod/moductypes.o
 .comment       0x0000000000000000       0x2c build/extmod/moductypes.o
 .note.GNU-stack
                0x0000000000000000        0x0 build/extmod/moductypes.o
 .note.gnu.property
                0x0000000000000000       0x20 build/extmod/moductypes.o
 .text          0x0000000000000000        0x0 build/extmod/modvfs.o
 .data          0x0000000000000000        0x0 build/extmod/modvfs.o
 .bss           0x0000000000000000        0x0 build/extmod/modvfs.o
 .debug_info    0x0000000000000000       0x64 build/extmod/modvfs.o
 .debug_abbrev  0x0000000000000000       0x29 build/extmod/modvfs.o
 .debug_pubnames
                0x0000000000000000       0x12 build/extmod/modvfs.o
 .debug_pubtypes
                0x0000000000000000       0xa8 build/extmod/modvfs.o
 .debug_aranges
                0x0000000000000000       0x20 build/extmod/modvfs.o
 .debug_line    0x0000000000000000       0x1e build/extmod/modvfs.o
 .debug_str     0x0000000000000000      0x205 build/extmod/modvfs.o
 .comment       0x0000000000000000       0x2c build/extmod/modvfs.o
 .note.GNU-stack
                0x0000000000000000        0x0 build/extmod/modvfs.o
 .note.gnu.property
                0x0000000000000000       0x20 build/extmod/modvfs.o
 .text          0x0000000000000000        0x0 build/extmod/modwebrepl.o
 .data          0x0000000000000000        0x0 build/extmod/modwebrepl.o
 .bss           0x0000000000000000        0x0 build/extmod/modwebrepl.o
 .debug_info    0x0000000000000000       0x64 build/extmod/modwebrepl.o
 .debug_abbrev  0x0000000000000000       0x29 build/extmod/modwebrepl.o
 .debug_pubnames
                0x0000000000000000       0x12 build/extmod/modwebrepl.o
 .debug_pubtypes
                0x0000000000000000       0xa8 build/extmod/modwebrepl.o
 .debug_aranges
                0x0000000000000000       0x20 build/extmod/modwebrepl.o
 .debug_line    0x0000000000000000       0x1e build/extmod/modwebrepl.o
 .debug_str     0x0000000000000000      0x209 build/extmod/modwebrepl.o
 .comment       0x0000000000000000       0x2c build/extmod/modwebrepl.o
 .note.GNU-stack
                0x0000000000000000        0x0 build/extmod/modwebrepl.o
 .note.gnu.property
                0x0000000000000000       0x20 build/extmod/modwebrepl.o
 .text          0x0000000000000000        0x0 build/extmod/modwebsocket.o
 .data          0x0000000000000000        0x0 build/extmod/modwebsocket.o
 .bss           0x0000000000000000        0x0 build/extmod/modwebsocket.o
 .debug_info    0x0000000000000000       0x64 build/extmod/modwebsocket.o
 .debug_abbrev  0x0000000000000000       0x29 build/extmod/modwebsocket.o
 .debug_pubnames
                0x0000000000000000       0x12 build/extmod/modwebsocket.o
 .debug_pubtypes
                0x0000000000000000       0xa8 build/extmod/modwebsocket.o
 .debug_aranges
                0x0000000000000000       0x20 build/extmod/modwebsocket.o
 .debug_line    0x0000000000000000       0x1e build/extmod/modwebsocket.o
 .debug_str     0x0000000000000000      0x20b build/extmod/modwebsocket.o
 .comment       0x0000000000000000       0x2c build/extmod/modwebsocket.o
 .note.GNU-stack
                0x0000000000000000        0x0 build/extmod/modwebsocket.o
 .note.gnu.property
                0x0000000000000000       0x20 build/extmod/modwebsocket.o
 .text          0x0000000000000000        0x0 build/extmod/network_cyw43.o
 .data          0x0000000000000000        0x0 build/extmod/network_cyw43.o
 .bss           0x0000000000000000        0x0 build/extmod/network_cyw43.o
 .debug_info    0x0000000000000000       0x64 build/extmod/network_cyw43.o
 .debug_abbrev  0x0000000000000000       0x29 build/extmod/network_cyw43.o
 .debug_pubnames
                0x0000000000000000       0x12 build/extmod/network_cyw43.o
 .debug_pubtypes
                0x0000000000000000       0xa8 build/extmod/network_cyw43.o
 .debug_aranges
                0x0000000000000000       0x20 build/extmod/network_cyw43.o
 .debug_line    0x0000000000000000       0x1e build/extmod/network_cyw43.o
 .debug_str     0x0000000000000000      0x20c build/extmod/network_cyw43.o
 .comment       0x0000000000000000       0x2c build/extmod/network_cyw43.o
 .note.GNU-stack
                0x0000000000000000        0x0 build/extmod/network_cyw43.o
 .note.gnu.property
                0x0000000000000000       0x20 build/extmod/network_cyw43.o
 .text          0x0000000000000000        0x0 build/extmod/network_esp_hosted.o
 .data          0x0000000000000000        0x0 build/extmod/network_esp_hosted.o
 .bss           0x0000000000000000        0x0 build/extmod/network_esp_hosted.o
 .debug_info    0x0000000000000000       0x64 build/extmod/network_esp_hosted.o
 .debug_abbrev  0x0000000000000000       0x29 build/extmod/network_esp_hosted.o
 .debug_pubnames
                0x0000000000000000       0x12 build/extmod/network_esp_hosted.o
 .debug_pubtypes
                0x0000000000000000       0xa8 build/extmod/network_esp_hosted.o
 .debug_aranges
                0x0000000000000000       0x20 build/extmod/network_esp_hosted.o
 .debug_line    0x0000000000000000       0x1e build/extmod/network_esp_hosted.o
 .debug_str     0x0000000000000000      0x211 build/extmod/network_esp_hosted.o
 .comment       0x0000000000000000       0x2c build/extmod/network_esp_hosted.o
 .note.GNU-stack
                0x0000000000000000        0x0 build/extmod/network_esp_hosted.o
 .note.gnu.property
                0x0000000000000000       0x20 build/extmod/network_esp_hosted.o
 .text          0x0000000000000000        0x0 build/extmod/network_lwip.o
 .data          0x0000000000000000        0x0 build/extmod/network_lwip.o
 .bss           0x0000000000000000        0x0 build/extmod/network_lwip.o
 .debug_info    0x0000000000000000       0x64 build/extmod/network_lwip.o
 .debug_abbrev  0x0000000000000000       0x29 build/extmod/network_lwip.o
 .debug_pubnames
                0x0000000000000000       0x12 build/extmod/network_lwip.o
 .debug_pubtypes
                0x0000000000000000       0xa8 build/extmod/network_lwip.o
 .debug_aranges
                0x0000000000000000       0x20 build/extmod/network_lwip.o
 .debug_line    0x0000000000000000       0x1e build/extmod/network_lwip.o
 .debug_str     0x0000000000000000      0x20b build/extmod/network_lwip.o
 .comment       0x0000000000000000       0x2c build/extmod/network_lwip.o
 .note.GNU-stack
                0x0000000000000000        0x0 build/extmod/network_lwip.o
 .note.gnu.property
                0x0000000000000000       0x20 build/extmod/network_lwip.o
 .text          0x0000000000000000        0x0 build/extmod/network_ninaw10.o
 .data          0x0000000000000000        0x0 build/extmod/network_ninaw10.o
 .bss           0x0000000000000000        0x0 build/extmod/network_ninaw10.o
 .debug_info    0x0000000000000000       0x64 build/extmod/network_ninaw10.o
 .debug_abbrev  0x0000000000000000       0x29 build/extmod/network_ninaw10.o
 .debug_pubnames
                0x0000000000000000       0x12 build/extmod/network_ninaw10.o
 .debug_pubtypes
                0x0000000000000000       0xa8 build/extmod/network_ninaw10.o
 .debug_aranges
                0x0000000000000000       0x20 build/extmod/network_ninaw10.o
 .debug_line    0x0000000000000000       0x1e build/extmod/network_ninaw10.o
 .debug_str     0x0000000000000000      0x20e build/extmod/network_ninaw10.o
 .comment       0x0000000000000000       0x2c build/extmod/network_ninaw10.o
 .note.GNU-stack
                0x0000000000000000        0x0 build/extmod/network_ninaw10.o
 .note.gnu.property
                0x0000000000000000       0x20 build/extmod/network_ninaw10.o
 .text          0x0000000000000000        0x0 build/extmod/network_wiznet5k.o
 .data          0x0000000000000000        0x0 build/extmod/network_wiznet5k.o
 .bss           0x0000000000000000        0x0 build/extmod/network_wiznet5k.o
 .debug_info    0x0000000000000000       0x64 build/extmod/network_wiznet5k.o
 .debug_abbrev  0x0000000000000000       0x29 build/extmod/network_wiznet5k.o
 .debug_pubnames
                0x0000000000000000       0x12 build/extmod/network_wiznet5k.o
 .debug_pubtypes
                0x0000000000000000       0xa8 build/extmod/network_wiznet5k.o
 .debug_aranges
                0x0000000000000000       0x20 build/extmod/network_wiznet5k.o
 .debug_line    0x0000000000000000       0x1e build/extmod/network_wiznet5k.o
 .debug_str     0x0000000000000000      0x20f build/extmod/network_wiznet5k.o
 .comment       0x0000000000000000       0x2c build/extmod/network_wiznet5k.o
 .note.GNU-stack
                0x0000000000000000        0x0 build/extmod/network_wiznet5k.o
 .note.gnu.property
                0x0000000000000000       0x20 build/extmod/network_wiznet5k.o
 .text          0x0000000000000000        0x0 build/extmod/os_dupterm.o
 .data          0x0000000000000000        0x0 build/extmod/os_dupterm.o
 .bss           0x0000000000000000        0x0 build/extmod/os_dupterm.o
 .debug_info    0x0000000000000000       0x64 build/extmod/os_dupterm.o
 .debug_abbrev  0x0000000000000000       0x29 build/extmod/os_dupterm.o
 .debug_pubnames
                0x0000000000000000       0x12 build/extmod/os_dupterm.o
 .debug_pubtypes
                0x0000000000000000       0xa8 build/extmod/os_dupterm.o
 .debug_aranges
                0x0000000000000000       0x20 build/extmod/os_dupterm.o
 .debug_line    0x0000000000000000       0x1e build/extmod/os_dupterm.o
 .debug_str     0x0000000000000000      0x209 build/extmod/os_dupterm.o
 .comment       0x0000000000000000       0x2c build/extmod/os_dupterm.o
 .note.GNU-stack
                0x0000000000000000        0x0 build/extmod/os_dupterm.o
 .note.gnu.property
                0x0000000000000000       0x20 build/extmod/os_dupterm.o
 .text          0x0000000000000000        0x0 build/extmod/vfs.o
 .data          0x0000000000000000        0x0 build/extmod/vfs.o
 .bss           0x0000000000000000        0x0 build/extmod/vfs.o
 .debug_info    0x0000000000000000       0x64 build/extmod/vfs.o
 .debug_abbrev  0x0000000000000000       0x29 build/extmod/vfs.o
 .debug_pubnames
                0x0000000000000000       0x12 build/extmod/vfs.o
 .debug_pubtypes
                0x0000000000000000       0xa8 build/extmod/vfs.o
 .debug_aranges
                0x0000000000000000       0x20 build/extmod/vfs.o
 .debug_line    0x0000000000000000       0x1e build/extmod/vfs.o
 .debug_str     0x0000000000000000      0x202 build/extmod/vfs.o
 .comment       0x0000000000000000       0x2c build/extmod/vfs.o
 .note.GNU-stack
                0x0000000000000000        0x0 build/extmod/vfs.o
 .note.gnu.property
                0x0000000000000000       0x20 build/extmod/vfs.o
 .text          0x0000000000000000        0x0 build/extmod/vfs_blockdev.o
 .data          0x0000000000000000        0x0 build/extmod/vfs_blockdev.o
 .bss           0x0000000000000000        0x0 build/extmod/vfs_blockdev.o
 .debug_info    0x0000000000000000       0x64 build/extmod/vfs_blockdev.o
 .debug_abbrev  0x0000000000000000       0x29 build/extmod/vfs_blockdev.o
 .debug_pubnames
                0x0000000000000000       0x12 build/extmod/vfs_blockdev.o
 .debug_pubtypes
                0x0000000000000000       0xa8 build/extmod/vfs_blockdev.o
 .debug_aranges
                0x0000000000000000       0x20 build/extmod/vfs_blockdev.o
 .debug_line    0x0000000000000000       0x1e build/extmod/vfs_blockdev.o
 .debug_str     0x0000000000000000      0x20b build/extmod/vfs_blockdev.o
 .comment       0x0000000000000000       0x2c build/extmod/vfs_blockdev.o
 .note.GNU-stack
                0x0000000000000000        0x0 build/extmod/vfs_blockdev.o
 .note.gnu.property
                0x0000000000000000       0x20 build/extmod/vfs_blockdev.o
 .text          0x0000000000000000        0x0 build/extmod/vfs_fat.o
 .data          0x0000000000000000        0x0 build/extmod/vfs_fat.o
 .bss           0x0000000000000000        0x0 build/extmod/vfs_fat.o
 .debug_info    0x0000000000000000       0x64 build/extmod/vfs_fat.o
 .debug_abbrev  0x0000000000000000       0x29 build/extmod/vfs_fat.o
 .debug_pubnames
                0x0000000000000000       0x12 build/extmod/vfs_fat.o
 .debug_pubtypes
                0x0000000000000000       0xa8 build/extmod/vfs_fat.o
 .debug_aranges
                0x0000000000000000       0x20 build/extmod/vfs_fat.o
 .debug_line    0x0000000000000000       0x1e build/extmod/vfs_fat.o
 .debug_str     0x0000000000000000      0x206 build/extmod/vfs_fat.o
 .comment       0x0000000000000000       0x2c build/extmod/vfs_fat.o
 .note.GNU-stack
                0x0000000000000000        0x0 build/extmod/vfs_fat.o
 .note.gnu.property
                0x0000000000000000       0x20 build/extmod/vfs_fat.o
 .text          0x0000000000000000        0x0 build/extmod/vfs_fat_diskio.o
 .data          0x0000000000000000        0x0 build/extmod/vfs_fat_diskio.o
 .bss           0x0000000000000000        0x0 build/extmod/vfs_fat_diskio.o
 .debug_info    0x0000000000000000       0x64 build/extmod/vfs_fat_diskio.o
 .debug_abbrev  0x0000000000000000       0x29 build/extmod/vfs_fat_diskio.o
 .debug_pubnames
                0x0000000000000000       0x12 build/extmod/vfs_fat_diskio.o
 .debug_pubtypes
                0x0000000000000000       0xa8 build/extmod/vfs_fat_diskio.o
 .debug_aranges
                0x0000000000000000       0x20 build/extmod/vfs_fat_diskio.o
 .debug_line    0x0000000000000000       0x1e build/extmod/vfs_fat_diskio.o
 .debug_str     0x0000000000000000      0x20d build/extmod/vfs_fat_diskio.o
 .comment       0x0000000000000000       0x2c build/extmod/vfs_fat_diskio.o
 .note.GNU-stack
                0x0000000000000000        0x0 build/extmod/vfs_fat_diskio.o
 .note.gnu.property
                0x0000000000000000       0x20 build/extmod/vfs_fat_diskio.o
 .text          0x0000000000000000        0x0 build/extmod/vfs_fat_file.o
 .data          0x0000000000000000        0x0 build/extmod/vfs_fat_file.o
 .bss           0x0000000000000000        0x0 build/extmod/vfs_fat_file.o
 .debug_info    0x0000000000000000       0x64 build/extmod/vfs_fat_file.o
 .debug_abbrev  0x0000000000000000       0x29 build/extmod/vfs_fat_file.o
 .debug_pubnames
                0x0000000000000000       0x12 build/extmod/vfs_fat_file.o
 .debug_pubtypes
                0x0000000000000000       0xa8 build/extmod/vfs_fat_file.o
 .debug_aranges
                0x0000000000000000       0x20 build/extmod/vfs_fat_file.o
 .debug_line    0x0000000000000000       0x1e build/extmod/vfs_fat_file.o
 .debug_str     0x0000000000000000      0x20b build/extmod/vfs_fat_file.o
 .comment       0x0000000000000000       0x2c build/extmod/vfs_fat_file.o
 .note.GNU-stack
                0x0000000000000000        0x0 build/extmod/vfs_fat_file.o
 .note.gnu.property
                0x0000000000000000       0x20 build/extmod/vfs_fat_file.o
 .text          0x0000000000000000        0x0 build/extmod/vfs_lfs.o
 .data          0x0000000000000000        0x0 build/extmod/vfs_lfs.o
 .bss           0x0000000000000000        0x0 build/extmod/vfs_lfs.o
 .debug_info    0x0000000000000000       0x64 build/extmod/vfs_lfs.o
 .debug_abbrev  0x0000000000000000       0x29 build/extmod/vfs_lfs.o
 .debug_pubnames
                0x0000000000000000       0x12 build/extmod/vfs_lfs.o
 .debug_pubtypes
                0x0000000000000000       0xa8 build/extmod/vfs_lfs.o
 .debug_aranges
                0x0000000000000000       0x20 build/extmod/vfs_lfs.o
 .debug_line    0x0000000000000000       0x1e build/extmod/vfs_lfs.o
 .debug_str     0x0000000000000000      0x206 build/extmod/vfs_lfs.o
 .comment       0x0000000000000000       0x2c build/extmod/vfs_lfs.o
 .note.GNU-stack
                0x0000000000000000        0x0 build/extmod/vfs_lfs.o
 .note.gnu.property
                0x0000000000000000       0x20 build/extmod/vfs_lfs.o
 .text          0x0000000000000000        0x0 build/extmod/vfs_posix.o
 .data          0x0000000000000000        0x0 build/extmod/vfs_posix.o
 .bss           0x0000000000000000        0x0 build/extmod/vfs_posix.o
 .debug_info    0x0000000000000000       0x64 build/extmod/vfs_posix.o
 .debug_abbrev  0x0000000000000000       0x29 build/extmod/vfs_posix.o
 .debug_pubnames
                0x0000000000000000       0x12 build/extmod/vfs_posix.o
 .debug_pubtypes
                0x0000000000000000       0xa8 build/extmod/vfs_posix.o
 .debug_aranges
                0x0000000000000000       0x20 build/extmod/vfs_posix.o
 .debug_line    0x0000000000000000       0x1e build/extmod/vfs_posix.o
 .debug_str     0x0000000000000000      0x208 build/extmod/vfs_posix.o
 .comment       0x0000000000000000       0x2c build/extmod/vfs_posix.o
 .note.GNU-stack
                0x0000000000000000        0x0 build/extmod/vfs_posix.o
 .note.gnu.property
                0x0000000000000000       0x20 build/extmod/vfs_posix.o
 .text          0x0000000000000000        0x0 build/extmod/vfs_posix_file.o
 .data          0x0000000000000000        0x0 build/extmod/vfs_posix_file.o
 .bss           0x0000000000000000        0x0 build/extmod/vfs_posix_file.o
 .debug_info    0x0000000000000000       0x64 build/extmod/vfs_posix_file.o
 .debug_abbrev  0x0000000000000000       0x29 build/extmod/vfs_posix_file.o
 .debug_pubnames
                0x0000000000000000       0x12 build/extmod/vfs_posix_file.o
 .debug_pubtypes
                0x0000000000000000       0xa8 build/extmod/vfs_posix_file.o
 .debug_aranges
                0x0000000000000000       0x20 build/extmod/vfs_posix_file.o
 .debug_line    0x0000000000000000       0x1e build/extmod/vfs_posix_file.o
 .debug_str     0x0000000000000000      0x20d build/extmod/vfs_posix_file.o
 .comment       0x0000000000000000       0x2c build/extmod/vfs_posix_file.o
 .note.GNU-stack
                0x0000000000000000        0x0 build/extmod/vfs_posix_file.o
 .note.gnu.property
                0x0000000000000000       0x20 build/extmod/vfs_posix_file.o
 .text          0x0000000000000000        0x0 build/extmod/vfs_reader.o
 .data          0x0000000000000000        0x0 build/extmod/vfs_reader.o
 .bss           0x0000000000000000        0x0 build/extmod/vfs_reader.o
 .debug_info    0x0000000000000000       0x64 build/extmod/vfs_reader.o
 .debug_abbrev  0x0000000000000000       0x29 build/extmod/vfs_reader.o
 .debug_pubnames
                0x0000000000000000       0x12 build/extmod/vfs_reader.o
 .debug_pubtypes
                0x0000000000000000       0xa8 build/extmod/vfs_reader.o
 .debug_aranges
                0x0000000000000000       0x20 build/extmod/vfs_reader.o
 .debug_line    0x0000000000000000       0x1e build/extmod/vfs_reader.o
 .debug_str     0x0000000000000000      0x209 build/extmod/vfs_reader.o
 .comment       0x0000000000000000       0x2c build/extmod/vfs_reader.o
 .note.GNU-stack
                0x0000000000000000        0x0 build/extmod/vfs_reader.o
 .note.gnu.property
                0x0000000000000000       0x20 build/extmod/vfs_reader.o
 .data          0x0000000000000000        0x0 build/extmod/virtpin.o
 .bss           0x0000000000000000        0x0 build/extmod/virtpin.o
 .comment       0x0000000000000000       0x2c build/extmod/virtpin.o
 .note.GNU-stack
                0x0000000000000000        0x0 build/extmod/virtpin.o
 .note.gnu.property
                0x0000000000000000       0x20 build/extmod/virtpin.o
 .text          0x0000000000000000       0x28 build/shared/libc/abort_.o
 .data          0x0000000000000000        0x0 build/shared/libc/abort_.o
 .bss           0x0000000000000000        0x0 build/shared/libc/abort_.o
 .rodata.str1.1
                0x0000000000000000        0xf build/shared/libc/abort_.o
 .debug_info    0x0000000000000000      0x242 build/shared/libc/abort_.o
 .debug_abbrev  0x0000000000000000      0x11a build/shared/libc/abort_.o
 .debug_pubnames
                0x0000000000000000       0x2e build/shared/libc/abort_.o
 .debug_pubtypes
                0x0000000000000000      0x123 build/shared/libc/abort_.o
 .debug_aranges
                0x0000000000000000       0x30 build/shared/libc/abort_.o
 .debug_line    0x0000000000000000       0xb4 build/shared/libc/abort_.o
 .debug_str     0x0000000000000000      0x38c build/shared/libc/abort_.o
 .comment       0x0000000000000000       0x2c build/shared/libc/abort_.o
 .note.GNU-stack
                0x0000000000000000        0x0 build/shared/libc/abort_.o
 .note.gnu.property
                0x0000000000000000       0x20 build/shared/libc/abort_.o
 .debug_frame   0x0000000000000000       0x38 build/shared/libc/abort_.o
 .text          0x0000000000000000        0x0 build/shared/libc/printf.o
 .data          0x0000000000000000        0x0 build/shared/libc/printf.o
 .bss           0x0000000000000000        0x0 build/shared/libc/printf.o
 .debug_info    0x0000000000000000       0x64 build/shared/libc/printf.o
 .debug_abbrev  0x0000000000000000       0x29 build/shared/libc/printf.o
 .debug_pubnames
                0x0000000000000000       0x12 build/shared/libc/printf.o
 .debug_pubtypes
                0x0000000000000000       0xa8 build/shared/libc/printf.o
 .debug_aranges
                0x0000000000000000       0x20 build/shared/libc/printf.o
 .debug_line    0x0000000000000000       0x1e build/shared/libc/printf.o
 .debug_str     0x0000000000000000      0x20a build/shared/libc/printf.o
 .comment       0x0000000000000000       0x2c build/shared/libc/printf.o
 .note.GNU-stack
                0x0000000000000000        0x0 build/shared/libc/printf.o
 .note.gnu.property
                0x0000000000000000       0x20 build/shared/libc/printf.o
 .data          0x0000000000000000        0x0 ../../../obj/lib/entry.o
 .bss           0x0000000000000000        0x0 ../../../obj/lib/entry.o
 .data          0x0000000000000000        0x0 build/shared/runtime/gchelper_generic.o
 .bss           0x0000000000000000        0x0 build/shared/runtime/gchelper_generic.o
 .comment       0x0000000000000000       0x2c build/shared/runtime/gchelper_generic.o
 .note.GNU-stack
                0x0000000000000000        0x0 build/shared/runtime/gchelper_generic.o
 .note.gnu.property
                0x0000000000000000       0x20 build/shared/runtime/gchelper_generic.o
 .data          0x0000000000000000        0x0 build/shared/timeutils/timeutils.o
 .bss           0x0000000000000000        0x0 build/shared/timeutils/timeutils.o
 .comment       0x0000000000000000       0x2c build/shared/timeutils/timeutils.o
 .note.GNU-stack
                0x0000000000000000        0x0 build/shared/timeutils/timeutils.o
 .note.gnu.property
                0x0000000000000000       0x20 build/shared/timeutils/timeutils.o
 .data          0x0000000000000000        0x0 build/gccollect.o
 .bss           0x0000000000000000        0x0 build/gccollect.o
 .comment       0x0000000000000000       0x2c build/gccollect.o
 .note.GNU-stack
                0x0000000000000000        0x0 build/gccollect.o
 .note.gnu.property
                0x0000000000000000       0x20 build/gccollect.o
 .text          0x0000000000000000       0x16 build/input.o
 .data          0x0000000000000000        0x0 build/input.o
 .bss           0x0000000000000000        0x0 build/input.o
 .debug_info    0x0000000000000000       0xe1 build/input.o
 .debug_abbrev  0x0000000000000000       0xa2 build/input.o
 .debug_loc     0x0000000000000000       0x3d build/input.o
 .debug_pubnames
                0x0000000000000000       0x2a build/input.o
 .debug_pubtypes
                0x0000000000000000       0xa8 build/input.o
 .debug_aranges
                0x0000000000000000       0x30 build/input.o
 .debug_line    0x0000000000000000       0x61 build/input.o
 .debug_str     0x0000000000000000      0x207 build/input.o
 .comment       0x0000000000000000       0x2c build/input.o
 .note.GNU-stack
                0x0000000000000000        0x0 build/input.o
 .note.gnu.property
                0x0000000000000000       0x20 build/input.o
 .debug_frame   0x0000000000000000       0x40 build/input.o
 .comment       0x0000000000000000       0x2c build/main.o
 .note.GNU-stack
                0x0000000000000000        0x0 build/main.o
 .note.gnu.property
                0x0000000000000000       0x20 build/main.o
 .data          0x0000000000000000        0x0 build/mphalport.o
 .bss           0x0000000000000000        0x0 build/mphalport.o
 .comment       0x0000000000000000       0x2c build/mphalport.o
 .note.GNU-stack
                0x0000000000000000        0x0 build/mphalport.o
 .note.gnu.property
                0x0000000000000000       0x20 build/mphalport.o
 .data          0x0000000000000000        0x0 build/modio.o
 .bss           0x0000000000000000        0x0 build/modio.o
 .comment       0x0000000000000000       0x2c build/modio.o
 .note.GNU-stack
                0x0000000000000000        0x0 build/modio.o
 .note.gnu.property
                0x0000000000000000       0x20 build/modio.o
 .data          0x0000000000000000        0x0 build/lexer.o
 .bss           0x0000000000000000        0x0 build/lexer.o
 .comment       0x0000000000000000       0x2c build/lexer.o
 .note.GNU-stack
                0x0000000000000000        0x0 build/lexer.o
 .note.gnu.property
                0x0000000000000000       0x20 build/lexer.o
 .comment       0x0000000000000000       0x2c ../../../obj/lib/libjos.a(libmain.o)
 .note.GNU-stack
                0x0000000000000000        0x0 ../../../obj/lib/libjos.a(libmain.o)
 .note.gnu.property
                0x0000000000000000       0x20 ../../../obj/lib/libjos.a(libmain.o)
 .eh_frame      0x0000000000000000       0x40 ../../../obj/lib/libjos.a(libmain.o)
 .data          0x0000000000000000        0x0 ../../../obj/lib/libjos.a(exit.o)
 .bss           0x0000000000000000        0x0 ../../../obj/lib/libjos.a(exit.o)
 .comment       0x0000000000000000       0x2c ../../../obj/lib/libjos.a(exit.o)
 .note.GNU-stack
                0x0000000000000000        0x0 ../../../obj/lib/libjos.a(exit.o)
 .note.gnu.property
                0x0000000000000000       0x20 ../../../obj/lib/libjos.a(exit.o)
 .eh_frame      0x0000000000000000       0x38 ../../../obj/lib/libjos.a(exit.o)
 .data          0x0000000000000000        0x0 ../../../obj/lib/libjos.a(panic.o)
 .bss           0x0000000000000000        0x0 ../../../obj/lib/libjos.a(panic.o)
 .comment       0x0000000000000000       0x2c ../../../obj/lib/libjos.a(panic.o)
 .note.GNU-stack
                0x0000000000000000        0x0 ../../../obj/lib/libjos.a(panic.o)
 .note.gnu.property
                0x0000000000000000       0x20 ../../../obj/lib/libjos.a(panic.o)
 .eh_frame      0x0000000000000000       0x40 ../../../obj/lib/libjos.a(panic.o)
 .data          0x0000000000000000        0x0 ../../../obj/lib/libjos.a(printf.o)
 .bss           0x0000000000000000        0x0 ../../../obj/lib/libjos.a(printf.o)
 .comment       0x0000000000000000       0x2c ../../../obj/lib/libjos.a(printf.o)
 .note.GNU-stack
                0x0000000000000000        0x0 ../../../obj/lib/libjos.a(printf.o)
 .note.gnu.property
                0x0000000000000000       0x20 ../../../obj/lib/libjos.a(printf.o)
 .eh_frame      0x0000000000000000       0x80 ../../../obj/lib/libjos.a(printf.o)
 .data          0x0000000000000000        0x0 ../../../obj/lib/libjos.a(printfmt.o)
 .bss           0x0000000000000000        0x0 ../../../obj/lib/libjos.a(printfmt.o)
 .comment       0x0000000000000000       0x2c ../../../obj/lib/libjos.a(printfmt.o)
 .note.GNU-stack
                0x0000000000000000        0x0 ../../../obj/lib/libjos.a(printfmt.o)
 .note.gnu.property
                0x0000000000000000       0x20 ../../../obj/lib/libjos.a(printfmt.o)
 .eh_frame      0x0000000000000000      0x100 ../../../obj/lib/libjos.a(printfmt.o)
 .data          0x0000000000000000        0x0 ../../../obj/lib/libjos.a(string.o)
 .bss           0x0000000000000000        0x0 ../../../obj/lib/libjos.a(string.o)
 .comment       0x0000000000000000       0x2c ../../../obj/lib/libjos.a(string.o)
 .note.GNU-stack
                0x0000000000000000        0x0 ../../../obj/lib/libjos.a(string.o)
 .note.gnu.property
                0x0000000000000000       0x20 ../../../obj/lib/libjos.a(string.o)
 .eh_frame      0x0000000000000000      0x1c8 ../../../obj/lib/libjos.a(string.o)
 .text          0x0000000000000000      0x145 ../../../obj/lib/libjos.a(readline.o)
 .data          0x0000000000000000        0x0 ../../../obj/lib/libjos.a(readline.o)
 .bss           0x0000000000000000      0x400 ../../../obj/lib/libjos.a(readline.o)
 .rodata.str1.1
                0x0000000000000000       0x13 ../../../obj/lib/libjos.a(readline.o)
 .debug_info    0x0000000000000000      0x31a ../../../obj/lib/libjos.a(readline.o)
 .debug_abbrev  0x0000000000000000      0x171 ../../../obj/lib/libjos.a(readline.o)
 .debug_loc     0x0000000000000000      0x27d ../../../obj/lib/libjos.a(readline.o)
 .debug_pubnames
                0x0000000000000000      0x1af ../../../obj/lib/libjos.a(readline.o)
 .debug_pubtypes
                0x0000000000000000       0xd5 ../../../obj/lib/libjos.a(readline.o)
 .debug_aranges
                0x0000000000000000       0x30 ../../../obj/lib/libjos.a(readline.o)
 .debug_ranges  0x0000000000000000       0x60 ../../../obj/lib/libjos.a(readline.o)
 .debug_line    0x0000000000000000      0x16d ../../../obj/lib/libjos.a(readline.o)
 .debug_str     0x0000000000000000      0x2fe ../../../obj/lib/libjos.a(readline.o)
 .comment       0x0000000000000000       0x2c ../../../obj/lib/libjos.a(readline.o)
 .note.GNU-stack
                0x0000000000000000        0x0 ../../../obj/lib/libjos.a(readline.o)
 .note.gnu.property
                0x0000000000000000       0x20 ../../../obj/lib/libjos.a(readline.o)
 .eh_frame      0x0000000000000000       0x50 ../../../obj/lib/libjos.a(readline.o)
 .data          0x0000000000000000        0x0 ../../../obj/lib/libjos.a(syscall.o)
 .bss           0x0000000000000000        0x0 ../../../obj/lib/libjos.a(syscall.o)
 .comment       0x0000000000000000       0x2c ../../../obj/lib/libjos.a(syscall.o)
 .note.GNU-stack
                0x0000000000000000        0x0 ../../../obj/lib/libjos.a(syscall.o)
 .note.gnu.property
                0x0000000000000000       0x20 ../../../obj/lib/libjos.a(syscall.o)
 .eh_frame      0x0000000000000000      0x2c8 ../../../obj/lib/libjos.a(syscall.o)
 .bss           0x0000000000000000        0x0 ../../../obj/lib/libjos.a(random.o)
 .comment       0x0000000000000000       0x2c ../../../obj/lib/libjos.a(random.o)
 .note.GNU-stack
                0x0000000000000000        0x0 ../../../obj/lib/libjos.a(random.o)
 .note.gnu.property
                0x0000000000000000       0x20 ../../../obj/lib/libjos.a(random.o)
 .eh_frame      0x0000000000000000       0x58 ../../../obj/lib/libjos.a(random.o)
 .text          0x0000000000000000        0x0 ../../../obj/lib/libjos.a(random_data.o)
 .bss           0x0000000000000000        0x0 ../../../obj/lib/libjos.a(random_data.o)
 .comment       0x0000000000000000       0x2c ../../../obj/lib/libjos.a(random_data.o)
 .note.GNU-stack
                0x0000000000000000        0x0 ../../../obj/lib/libjos.a(random_data.o)
 .note.gnu.property
                0x0000000000000000       0x20 ../../../obj/lib/libjos.a(random_data.o)
 .data          0x0000000000000000        0x0 ../../../obj/lib/libjos.a(fd.o)
 .bss           0x0000000000000000        0x0 ../../../obj/lib/libjos.a(fd.o)
 .comment       0x0000000000000000       0x2c ../../../obj/lib/libjos.a(fd.o)
 .note.GNU-stack
                0x0000000000000000        0x0 ../../../obj/lib/libjos.a(fd.o)
 .note.gnu.property
                0x0000000000000000       0x20 ../../../obj/lib/libjos.a(fd.o)
 .eh_frame      0x0000000000000000      0x2c8 ../../../obj/lib/libjos.a(fd.o)
 .comment       0x0000000000000000       0x2c ../../../obj/lib/libjos.a(file.o)
 .note.GNU-stack
                0x0000000000000000        0x0 ../../../obj/lib/libjos.a(file.o)
 .note.gnu.property
                0x0000000000000000       0x20 ../../../obj/lib/libjos.a(file.o)
 .eh_frame      0x0000000000000000      0x160 ../../../obj/lib/libjos.a(file.o)
 .text          0x0000000000000000      0x1b7 ../../../obj/lib/libjos.a(fprintf.o)
 .data          0x0000000000000000        0x0 ../../../obj/lib/libjos.a(fprintf.o)
 .bss           0x0000000000000000        0x0 ../../../obj/lib/libjos.a(fprintf.o)
 .debug_info    0x0000000000000000      0x4b6 ../../../obj/lib/libjos.a(fprintf.o)
 .debug_abbrev  0x0000000000000000      0x1ff ../../../obj/lib/libjos.a(fprintf.o)
 .debug_loc     0x0000000000000000      0x3b0 ../../../obj/lib/libjos.a(fprintf.o)
 .debug_pubnames
                0x0000000000000000       0x67 ../../../obj/lib/libjos.a(fprintf.o)
 .debug_pubtypes
                0x0000000000000000      0x130 ../../../obj/lib/libjos.a(fprintf.o)
 .debug_aranges
                0x0000000000000000       0x30 ../../../obj/lib/libjos.a(fprintf.o)
 .debug_line    0x0000000000000000      0x1bd ../../../obj/lib/libjos.a(fprintf.o)
 .debug_str     0x0000000000000000      0x29a ../../../obj/lib/libjos.a(fprintf.o)
 .comment       0x0000000000000000       0x2c ../../../obj/lib/libjos.a(fprintf.o)
 .note.GNU-stack
                0x0000000000000000        0x0 ../../../obj/lib/libjos.a(fprintf.o)
 .note.gnu.property
                0x0000000000000000       0x20 ../../../obj/lib/libjos.a(fprintf.o)
 .eh_frame      0x0000000000000000       0xc8 ../../../obj/lib/libjos.a(fprintf.o)
 .data          0x0000000000000000        0x0 ../../../obj/lib/libjos.a(spawn.o)
 .bss           0x0000000000000000        0x0 ../../../obj/lib/libjos.a(spawn.o)
 .comment       0x0000000000000000       0x2c ../../../obj/lib/libjos.a(spawn.o)
 .note.GNU-stack
                0x0000000000000000        0x0 ../../../obj/lib/libjos.a(spawn.o)
 .note.gnu.property
                0x0000000000000000       0x20 ../../../obj/lib/libjos.a(spawn.o)
 .eh_frame      0x0000000000000000       0xe8 ../../../obj/lib/libjos.a(spawn.o)
 .bss           0x0000000000000000        0x0 ../../../obj/lib/libjos.a(pipe.o)
 .comment       0x0000000000000000       0x2c ../../../obj/lib/libjos.a(pipe.o)
 .note.GNU-stack
                0x0000000000000000        0x0 ../../../obj/lib/libjos.a(pipe.o)
 .note.gnu.property
                0x0000000000000000       0x20 ../../../obj/lib/libjos.a(pipe.o)
 .eh_frame      0x0000000000000000      0x128 ../../../obj/lib/libjos.a(pipe.o)
 .data          0x0000000000000000        0x0 ../../../obj/lib/libjos.a(wait.o)
 .bss           0x0000000000000000        0x0 ../../../obj/lib/libjos.a(wait.o)
 .comment       0x0000000000000000       0x2c ../../../obj/lib/libjos.a(wait.o)
 .note.GNU-stack
                0x0000000000000000        0x0 ../../../obj/lib/libjos.a(wait.o)
 .note.gnu.property
                0x0000000000000000       0x20 ../../../obj/lib/libjos.a(wait.o)
 .eh_frame      0x0000000000000000       0x48 ../../../obj/lib/libjos.a(wait.o)
 .data          0x0000000000000000        0x0 ../../../obj/lib/libjos.a(uvpt.o)
 .bss           0x0000000000000000        0x0 ../../../obj/lib/libjos.a(uvpt.o)
 .comment       0x0000000000000000       0x2c ../../../obj/lib/libjos.a(uvpt.o)
 .note.GNU-stack
                0x0000000000000000        0x0 ../../../obj/lib/libjos.a(uvpt.o)
 .note.gnu.property
                0x0000000000000000       0x20 ../../../obj/lib/libjos.a(uvpt.o)
 .eh_frame      0x0000000000000000       0xd8 ../../../obj/lib/libjos.a(uvpt.o)
 .data          0x0000000000000000        0x0 ../../../obj/lib/libjos.a(vsyscall.o)
 .bss           0x0000000000000000        0x0 ../../../obj/lib/libjos.a(vsyscall.o)
 .comment       0x0000000000000000       0x2c ../../../obj/lib/libjos.a(vsyscall.o)
 .note.GNU-stack
                0x0000000000000000        0x0 ../../../obj/lib/libjos.a(vsyscall.o)
 .note.gnu.property
                0x0000000000000000       0x20 ../../../obj/lib/libjos.a(vsyscall.o)
 .eh_frame      0x0000000000000000       0x30 ../../../obj/lib/libjos.a(vsyscall.o)
 .bss           0x0000000000000000        0x0 ../../../obj/lib/libjos.a(console.o)
 .comment       0x0000000000000000       0x2c ../../../obj/lib/libjos.a(console.o)
 .note.GNU-stack
                0x0000000000000000        0x0 ../../../obj/lib/libjos.a(console.o)
 .note.gnu.property
                0x0000000000000000       0x20 ../../../obj/lib/libjos.a(console.o)
 .eh_frame      0x0000000000000000      0x138 ../../../obj/lib/libjos.a(console.o)
 .data          0x0000000000000000        0x0 ../../../obj/lib/libjos.a(ipc.o)
 .bss           0x0000000000000000        0x0 ../../../obj/lib/libjos.a(ipc.o)
 .comment       0x0000000000000000       0x2c ../../../obj/lib/libjos.a(ipc.o)
 .note.GNU-stack
                0x0000000000000000        0x0 ../../../obj/lib/libjos.a(ipc.o)
 .note.gnu.property
                0x0000000000000000       0x20 ../../../obj/lib/libjos.a(ipc.o)
 .eh_frame      0x0000000000000000       0x90 ../../../obj/lib/libjos.a(ipc.o)

Memory Configuration

Name             Origin             Length             Attributes
*default*        0x0000000000000000 0xffffffffffffffff

Linker script and memory map

LOAD build/py/mpstate.o
LOAD build/py/nlr.o
LOAD build/py/nlrx86.o
LOAD build/py/nlrx64.o
LOAD build/py/nlrthumb.o
LOAD build/py/nlraarch64.o
LOAD build/py/nlrmips.o
LOAD build/py/nlrpowerpc.o
LOAD build/py/nlrxtensa.o
LOAD build/py/nlrrv32.o
LOAD build/py/nlrsetjmp.o
LOAD build/py/malloc.o
LOAD build/py/gc.o
LOAD build/py/pystack.o
LOAD build/py/qstr.o
LOAD build/py/vstr.o
LOAD build/py/mpprint.o
LOAD build/py/unicode.o
LOAD build/py/mpz.o
LOAD build/py/reader.o
LOAD build/py/lexer.o
LOAD build/py/parse.o
LOAD build/py/scope.o
LOAD build/py/compile.o
LOAD build/py/emitcommon.o
LOAD build/py/emitbc.o
LOAD build/py/asmbase.o
LOAD build/py/asmx64.o
LOAD build/py/emitnx64.o
LOAD build/py/asmx86.o
LOAD build/py/emitnx86.o
LOAD build/py/asmthumb.o
LOAD build/py/emitnthumb.o
LOAD build/py/emitinlinethumb.o
LOAD build/py/asmarm.o
LOAD build/py/emitnarm.o
LOAD build/py/asmxtensa.o
LOAD build/py/emitnxtensa.o
LOAD build/py/emitinlinextensa.o
LOAD build/py/emitnxtensawin.o
LOAD build/py/asmrv32.o
LOAD build/py/emitnrv32.o
LOAD build/py/emitndebug.o
LOAD build/py/formatfloat.o
LOAD build/py/parsenumbase.o
LOAD build/py/parsenum.o
LOAD build/py/emitglue.o
LOAD build/py/persistentcode.o
LOAD build/py/runtime.o
LOAD build/py/runtime_utils.o
LOAD build/py/scheduler.o
LOAD build/py/nativeglue.o
LOAD build/py/pairheap.o
LOAD build/py/ringbuf.o
LOAD build/py/stackctrl.o
LOAD build/py/argcheck.o
LOAD build/py/warning.o
LOAD build/py/profile.o
LOAD build/py/map.o
LOAD build/py/obj.o
LOAD build/py/objarray.o
LOAD build/py/objattrtuple.o
LOAD build/py/objbool.o
LOAD build/py/objboundmeth.o
LOAD build/py/objcell.o
LOAD build/py/objclosure.o
LOAD build/py/objcomplex.o
LOAD build/py/objdeque.o
LOAD build/py/objdict.o
LOAD build/py/objenumerate.o
LOAD build/py/objexcept.o
LOAD build/py/objfilter.o
LOAD build/py/objfloat.o
LOAD build/py/objfun.o
LOAD build/py/objgenerator.o
LOAD build/py/objgetitemiter.o
LOAD build/py/objint.o
LOAD build/py/objint_longlong.o
LOAD build/py/objint_mpz.o
LOAD build/py/objlist.o
LOAD build/py/objmap.o
LOAD build/py/objmodule.o
LOAD build/py/objobject.o
LOAD build/py/objpolyiter.o
LOAD build/py/objproperty.o
LOAD build/py/objnone.o
LOAD build/py/objnamedtuple.o
LOAD build/py/objrange.o
LOAD build/py/objreversed.o
LOAD build/py/objset.o
LOAD build/py/objsingleton.o
LOAD build/py/objslice.o
LOAD build/py/objstr.o
LOAD build/py/objstrunicode.o
LOAD build/py/objstringio.o
LOAD build/py/objtuple.o
LOAD build/py/objtype.o
LOAD build/py/objzip.o
LOAD build/py/opmethods.o
LOAD build/py/sequence.o
LOAD build/py/stream.o
LOAD build/py/binary.o
LOAD build/py/builtinimport.o
LOAD build/py/builtinevex.o
LOAD build/py/builtinhelp.o
LOAD build/py/modarray.o
LOAD build/py/modbuiltins.o
LOAD build/py/modcollections.o
LOAD build/py/modgc.o
LOAD build/py/modio.o
LOAD build/py/modmath.o
LOAD build/py/modcmath.o
LOAD build/py/modmicropython.o
LOAD build/py/modstruct.o
LOAD build/py/modsys.o
LOAD build/py/moderrno.o
LOAD build/py/modthread.o
LOAD build/py/vm.o
LOAD build/py/bc.o
LOAD build/py/showbc.o
LOAD build/py/repl.o
LOAD build/py/smallint.o
LOAD build/py/frozenmod.o
LOAD build/extmod/machine_adc.o
LOAD build/extmod/machine_adc_block.o
LOAD build/extmod/machine_bitstream.o
LOAD build/extmod/machine_i2c.o
LOAD build/extmod/machine_i2s.o
LOAD build/extmod/machine_mem.o
LOAD build/extmod/machine_pinbase.o
LOAD build/extmod/machine_pulse.o
LOAD build/extmod/machine_pwm.o
LOAD build/extmod/machine_signal.o
LOAD build/extmod/machine_spi.o
LOAD build/extmod/machine_timer.o
LOAD build/extmod/machine_uart.o
LOAD build/extmod/machine_usb_device.o
LOAD build/extmod/machine_wdt.o
LOAD build/extmod/modasyncio.o
LOAD build/extmod/modbinascii.o
LOAD build/extmod/modbluetooth.o
LOAD build/extmod/modbtree.o
LOAD build/extmod/modcryptolib.o
LOAD build/extmod/moddeflate.o
LOAD build/extmod/modframebuf.o
LOAD build/extmod/modhashlib.o
LOAD build/extmod/modheapq.o
LOAD build/extmod/modjson.o
LOAD build/extmod/modlwip.o
LOAD build/extmod/modmachine.o
LOAD build/extmod/modnetwork.o
LOAD build/extmod/modonewire.o
LOAD build/extmod/modopenamp.o
LOAD build/extmod/modopenamp_remoteproc.o
LOAD build/extmod/modopenamp_remoteproc_store.o
LOAD build/extmod/modos.o
LOAD build/extmod/modplatform.o
LOAD build/extmod/modrandom.o
LOAD build/extmod/modre.o
LOAD build/extmod/modselect.o
LOAD build/extmod/modsocket.o
LOAD build/extmod/modtls_axtls.o
LOAD build/extmod/modtls_mbedtls.o
LOAD build/extmod/modtime.o
LOAD build/extmod/moductypes.o
LOAD build/extmod/modvfs.o
LOAD build/extmod/modwebrepl.o
LOAD build/extmod/modwebsocket.o
LOAD build/extmod/network_cyw43.o
LOAD build/extmod/network_esp_hosted.o
LOAD build/extmod/network_lwip.o
LOAD build/extmod/network_ninaw10.o
LOAD build/extmod/network_wiznet5k.o
LOAD build/extmod/os_dupterm.o
LOAD build/extmod/vfs.o
LOAD build/extmod/vfs_blockdev.o
LOAD build/extmod/vfs_fat.o
LOAD build/extmod/vfs_fat_diskio.o
LOAD build/extmod/vfs_fat_file.o
LOAD build/extmod/vfs_lfs.o
LOAD build/extmod/vfs_posix.o
LOAD build/extmod/vfs_posix_file.o
LOAD build/extmod/vfs_reader.o
LOAD build/extmod/virtpin.o
LOAD build/shared/libc/abort_.o
LOAD build/shared/libc/printf.o
LOAD ../../../obj/lib/entry.o
LOAD build/shared/runtime/gchelper_generic.o
LOAD build/shared/timeutils/timeutils.o
LOAD build/gccollect.o
LOAD build/input.o
LOAD build/main.o
LOAD build/mphalport.o
LOAD build/modio.o
LOAD build/lexer.o
                0x0000000000800000                . = 0x800000

.text           0x0000000000800000    0x2e000
                0x0000000000800000                __text_start = .
 *(.text .stub .text.* .gnu.linkonce.t.*)
 .text          0x0000000000800000       0xe1 build/py/nlr.o
                0x0000000000800000                nlr_push_tail
                0x000000000080001f                nlr_pop
                0x0000000000800039                nlr_push_jump_callback
                0x0000000000800057                nlr_pop_jump_callback
                0x0000000000800082                nlr_call_jump_callbacks
 .text          0x00000000008000e1       0xa7 build/py/nlrx64.o
                0x00000000008000e1                nlr_push
                0x0000000000800110                nlr_jump
 .text          0x0000000000800188      0x246 build/py/malloc.o
                0x0000000000800188                m_malloc
                0x0000000000800203                m_malloc_maybe
                0x0000000000800265                m_malloc0
                0x000000000080027b                m_realloc
                0x00000000008002fc                m_realloc_maybe
                0x000000000080036e                m_free
                0x00000000008003a1                m_get_total_bytes_allocated
                0x00000000008003b0                m_get_current_bytes_allocated
                0x00000000008003bf                m_get_peak_bytes_allocated
 *fill*         0x00000000008003ce        0x2 
 .text          0x00000000008003d0     0x13ba build/py/gc.o
                0x00000000008006b0                gc_init
                0x0000000000800760                gc_lock
                0x0000000000800780                gc_unlock
                0x00000000008007a0                gc_is_locked
                0x00000000008007c0                gc_collect_start
                0x00000000008008a0                gc_collect_root
                0x0000000000800970                gc_collect_end
                0x0000000000800bb0                gc_sweep_all
                0x0000000000800be0                gc_info
                0x0000000000800db0                gc_alloc
                0x0000000000800fd0                gc_free
                0x0000000000801010                gc_nbytes
                0x00000000008010c0                gc_realloc
                0x0000000000801490                gc_dump_info
                0x0000000000801510                gc_dump_alloc_table
 .text          0x000000000080178a      0x6a7 build/py/qstr.o
                0x000000000080180d                qstr_compute_hash
                0x000000000080184d                qstr_init
                0x0000000000801875                qstr_find_strn
                0x0000000000801988                qstr_from_strn
                0x0000000000801c55                qstr_from_str
                0x0000000000801c89                qstr_hash
                0x0000000000801cc8                qstr_len
                0x0000000000801cf6                qstr_str
                0x0000000000801d21                qstr_data
                0x0000000000801d5f                qstr_pool_info
 .text          0x0000000000801e31      0x572 build/py/vstr.o
                0x0000000000801e9c                vstr_add_strn
                0x0000000000801eee                vstr_init
                0x0000000000801f32                vstr_init_len
                0x0000000000801f5c                vstr_init_fixed_buf
                0x0000000000801f74                vstr_init_print
                0x0000000000801fa7                vstr_clear
                0x0000000000801fe0                vstr_new
                0x000000000080201c                vstr_free
                0x0000000000802067                vstr_extend
                0x00000000008020c5                vstr_hint_size
                0x00000000008020db                vstr_add_len
                0x0000000000802112                vstr_null_terminated_str
                0x0000000000802154                vstr_add_byte
                0x000000000080217c                vstr_add_char
                0x0000000000802196                vstr_add_str
                0x00000000008021d0                vstr_ins_byte
                0x0000000000802239                vstr_ins_char
                0x00000000008022a2                vstr_cut_tail_bytes
                0x00000000008022c1                vstr_cut_out_bytes
                0x0000000000802310                vstr_cut_head_bytes
                0x000000000080232e                vstr_vprintf
                0x000000000080235e                vstr_printf
 .text          0x00000000008023a3      0xd6a build/py/mpprint.o
                0x00000000008023bf                mp_print_str
                0x0000000000802408                mp_print_strn
                0x0000000000802680                mp_print_mp_int
                0x0000000000802b06                mp_vprintf
                0x00000000008030c8                mp_printf
 .text          0x000000000080310d      0x1bc build/py/unicode.o
                0x000000000080310d                unichar_isspace
                0x0000000000803134                unichar_isalpha
                0x000000000080315c                unichar_isdigit
                0x0000000000803184                unichar_isxdigit
                0x00000000008031ac                unichar_isident
                0x00000000008031dc                unichar_isalnum
                0x0000000000803204                unichar_isupper
                0x000000000080322c                unichar_islower
                0x0000000000803254                unichar_tolower
                0x0000000000803281                unichar_toupper
                0x00000000008032ae                unichar_xdigit_value
 .text          0x00000000008032c9     0x2024 build/py/mpz.o
                0x0000000000803664                mpz_init_zero
                0x0000000000803680                mpz_deinit
                0x00000000008036ac                mpz_set
                0x0000000000803706                mpz_set_from_int
                0x0000000000803781                mpz_init_from_int
                0x00000000008037b5                mpz_init_fixed_from_int
                0x00000000008037fc                mpz_set_from_ll
                0x000000000080387b                mpz_set_from_str
                0x00000000008039c7                mpz_set_from_bytes
                0x0000000000803a9a                mpz_cmp
                0x0000000000803ae7                mpz_abs_inpl
                0x0000000000803b11                mpz_neg_inpl
                0x0000000000803b50                mpz_not_inpl
                0x0000000000803c1f                mpz_shl_inpl
                0x0000000000803d5a                mpz_shr_inpl
                0x0000000000803ec5                mpz_add_inpl
                0x0000000000803faa                mpz_sub_inpl
                0x00000000008040b8                mpz_and_inpl
                0x0000000000804236                mpz_or_inpl
                0x00000000008043e2                mpz_xor_inpl
                0x000000000080453d                mpz_mul_inpl
                0x00000000008046fa                mpz_pow_inpl
                0x000000000080480d                mpz_divmod_inpl
                0x0000000000804ce9                mpz_pow3_inpl
                0x0000000000804e56                mpz_hash
                0x0000000000804e98                mpz_as_int_checked
                0x0000000000804ef4                mpz_as_uint_checked
                0x0000000000804f4c                mpz_as_bytes
                0x0000000000805040                mpz_as_str_inpl
 .text          0x00000000008052ed       0xd1 build/py/reader.o
                0x0000000000805355                mp_reader_new_mem
 .text          0x00000000008053be      0xd97 build/py/lexer.o
                0x00000000008055b7                mp_lexer_to_next
                0x0000000000805fb9                mp_lexer_new
                0x00000000008060bc                mp_lexer_new_from_str_len
                0x00000000008060fe                mp_lexer_free
 .text          0x0000000000806155     0x1ca2 build/py/parse.o
                0x0000000000806a63                mp_parse_node_get_int_maybe
                0x0000000000806ac4                mp_parse_node_is_const_false
                0x0000000000806adf                mp_parse_node_is_const_true
                0x00000000008072bb                mp_parse_node_extract_list
                0x00000000008072fe                mp_parse
                0x0000000000807da7                mp_parse_tree_clear
 .text          0x0000000000807df7      0x365 build/py/scope.o
                0x0000000000807df7                scope_new
                0x0000000000807ed2                scope_free
                0x0000000000807f09                scope_find
                0x0000000000807f45                scope_find_or_add_id
                0x0000000000807fdb                scope_find_global
                0x0000000000808000                scope_check_to_close_over
 .text          0x000000000080815c     0x68a6 build/py/compile.o
                0x000000000080e388                mp_compile
 .text          0x000000000080ea02      0x2db build/py/emitcommon.o
                0x000000000080eabe                mp_emit_common_use_qstr
                0x000000000080eb22                mp_emit_common_use_const_obj
                0x000000000080eb94                mp_emit_common_get_id_for_modification
                0x000000000080ebcf                mp_emit_common_id_op
 .text          0x000000000080ecdd     0x17b2 build/py/emitbc.o
                0x000000000080edd6                emit_bc_new
                0x000000000080ee01                emit_bc_set_max_num_labels
                0x000000000080ee33                emit_bc_free
                0x000000000080ee6e                mp_emit_bc_start_pass
                0x000000000080f17e                mp_emit_bc_end_pass
                0x000000000080f3d0                mp_emit_bc_adjust_stack_size
                0x000000000080f500                mp_emit_bc_load_global
                0x000000000080f524                mp_emit_bc_store_global
                0x000000000080f548                mp_emit_bc_delete_global
                0x000000000080f56c                mp_emit_bc_delete_local
                0x000000000080f62a                mp_emit_bc_load_local
                0x000000000080f673                mp_emit_bc_store_local
                0x000000000080f86e                mp_emit_bc_set_source_line
                0x000000000080f873                mp_emit_bc_label_assign
                0x000000000080f91c                mp_emit_bc_import
                0x000000000080f968                mp_emit_bc_load_const_tok
                0x000000000080f9d3                mp_emit_bc_load_const_small_int
                0x000000000080fb09                mp_emit_bc_load_const_str
                0x000000000080fb2c                mp_emit_bc_load_const_obj
                0x000000000080fb6e                mp_emit_bc_load_null
                0x000000000080fb8e                mp_emit_bc_load_method
                0x000000000080fbb8                mp_emit_bc_load_build_class
                0x000000000080fbd8                mp_emit_bc_dup_top
                0x000000000080fbf8                mp_emit_bc_dup_top_two
                0x000000000080fc18                mp_emit_bc_pop_top
                0x000000000080fc38                mp_emit_bc_rot_two
                0x000000000080fc58                mp_emit_bc_attr
                0x000000000080fccb                mp_emit_bc_rot_three
                0x000000000080fceb                mp_emit_bc_subscr
                0x000000000080fd58                mp_emit_bc_jump
                0x000000000080fd8b                mp_emit_bc_pop_jump_if
                0x000000000080fdcb                mp_emit_bc_jump_if_or_pop
                0x000000000080fe0b                mp_emit_bc_unwind_jump
                0x000000000080fed5                mp_emit_bc_setup_block
                0x000000000080ff04                mp_emit_bc_with_cleanup
                0x000000000080ff6c                mp_emit_bc_end_finally
                0x000000000080ff8c                mp_emit_bc_get_iter
                0x000000000080ffb4                mp_emit_bc_for_iter
                0x000000000080ffd7                mp_emit_bc_for_iter_end
                0x000000000080fff4                mp_emit_bc_pop_except_jump
                0x0000000000810027                mp_emit_bc_unary_op
                0x0000000000810048                mp_emit_bc_binary_op
                0x00000000008100b6                mp_emit_bc_async_with_setup_finally
                0x0000000000810171                mp_emit_bc_build
                0x000000000081019f                mp_emit_bc_store_map
                0x00000000008101bf                mp_emit_bc_store_comp
                0x00000000008101f8                mp_emit_bc_unpack_sequence
                0x0000000000810219                mp_emit_bc_unpack_ex
                0x0000000000810240                mp_emit_bc_make_function
                0x0000000000810285                mp_emit_bc_make_closure
                0x0000000000810339                mp_emit_bc_call_function
                0x0000000000810362                mp_emit_bc_call_method
                0x000000000081038b                mp_emit_bc_return_value
                0x00000000008103bb                mp_emit_bc_raise_varargs
                0x0000000000810424                mp_emit_bc_yield
                0x0000000000810457                mp_emit_bc_start_except_handler
                0x0000000000810472                mp_emit_bc_end_except_handler
 .text          0x000000000081048f       0xc1 build/py/parsenumbase.o
                0x000000000081048f                mp_parse_num_base
 .text          0x0000000000810550      0x3a1 build/py/parsenum.o
                0x0000000000810599                mp_parse_num_integer
                0x00000000008108af                mp_parse_num_float
 .text          0x00000000008108f1      0x4a8 build/py/emitglue.o
                0x00000000008108f1                mp_emit_glue_new_raw_code
                0x0000000000810910                mp_emit_glue_assign_bytecode
                0x0000000000810927                mp_make_function_from_proto_fun
                0x0000000000810d39                mp_make_closure_from_proto_fun
 .text          0x0000000000810d99     0x368d build/py/runtime.o
                0x0000000000810d99                mp_globals_locals_set_from_nlr_jump_callback
                0x0000000000810e0c                mp_init
                0x0000000000810ef5                mp_deinit
                0x0000000000810efa                mp_call_function_1_from_nlr_jump_callback
                0x0000000000810f0e                mp_load_build_class
                0x0000000000810f1d                mp_store_name
                0x0000000000810f4b                mp_delete_name
                0x0000000000810f76                mp_store_global
                0x0000000000810fa4                mp_delete_global
                0x0000000000810fcf                mp_convert_member_lookup
                0x000000000081106b                mp_load_method_maybe
                0x0000000000811195                mp_load_method_protected
                0x000000000081122c                mp_import_name
                0x0000000000811273                mp_import_all
                0x0000000000811313                mp_raise_msg
                0x0000000000811356                mp_raise_msg_varg
                0x00000000008113a8                mp_load_global
                0x0000000000811434                mp_load_name
                0x0000000000811495                mp_unary_op
                0x000000000081174c                mp_call_function_n_kw
                0x00000000008117d7                mp_call_function_0
                0x00000000008117fc                mp_parse_compile_execute
                0x00000000008118b7                mp_call_function_1
                0x00000000008118e3                mp_call_function_2
                0x0000000000811913                mp_call_method_n_kw
                0x0000000000811953                mp_make_raise_obj
                0x00000000008119d7                mp_load_method
                0x0000000000811bda                mp_load_attr
                0x0000000000811c17                mp_resume
                0x0000000000811f3e                mp_store_attr
                0x0000000000811fdc                mp_getiter
                0x000000000081218f                mp_iternext_allow_raise
                0x0000000000812250                mp_iternext
                0x0000000000812396                mp_call_method_n_kw_var
                0x000000000081304f                mp_unpack_sequence
                0x0000000000813441                mp_unpack_ex
                0x0000000000813900                mp_import_from
                0x0000000000813aaa                m_malloc_fail
                0x0000000000813b11                mp_raise_ValueError
                0x0000000000813b32                mp_binary_op
                0x0000000000814219                mp_raise_TypeError
                0x000000000081423a                mp_raise_NotImplementedError
                0x000000000081425b                mp_raise_type_arg
                0x00000000008142ea                mp_raise_StopIteration
                0x0000000000814326                mp_raise_TypeError_int_conversion
                0x0000000000814362                mp_raise_OSError
                0x0000000000814388                mp_raise_OSError_with_filename
 .text          0x0000000000814426       0xec build/py/scheduler.o
                0x0000000000814426                mp_sched_exception
                0x0000000000814438                mp_sched_keyboard_interrupt
                0x000000000081445d                mp_handle_pending
                0x00000000008144a9                mp_event_handle_nowait
                0x00000000008144c4                mp_event_wait_indefinite
                0x00000000008144eb                mp_event_wait_ms
 .text          0x0000000000814512       0x4d build/py/stackctrl.o
                0x0000000000814512                mp_stack_ctrl_init
                0x000000000081452e                mp_stack_set_top
                0x0000000000814540                mp_stack_usage
 .text          0x000000000081455f      0x31d build/py/argcheck.o
                0x000000000081455f                mp_arg_check_num_sig
                0x0000000000814631                mp_arg_parse_all
                0x00000000008147f8                mp_arg_parse_all_kw_array
                0x000000000081485e                mp_arg_error_terse_mismatch
 .text          0x000000000081487c       0xd0 build/py/warning.o
                0x000000000081487c                mp_warning
                0x0000000000814926                mp_emitter_warning
 .text          0x000000000081494c      0x556 build/py/map.o
                0x000000000081494c                mp_map_init
                0x0000000000814998                mp_map_init_fixed_table
                0x00000000008149bf                mp_map_deinit
                0x0000000000814a00                mp_map_clear
                0x0000000000814a56                mp_map_lookup
 .text          0x0000000000814ea2     0x1319 build/py/obj.o
                0x0000000000814ea2                mp_identity
                0x0000000000814eaa                mp_obj_malloc_helper
                0x0000000000814ecf                mp_obj_get_type
                0x0000000000814eef                mp_obj_get_type_str
                0x0000000000814f15                mp_obj_print_helper
                0x0000000000814fa8                mp_obj_print
                0x0000000000814fcd                mp_obj_print_exception
                0x0000000000815158                mp_obj_is_callable
                0x00000000008151bb                mp_obj_get_int_maybe
                0x000000000081526c                mp_obj_get_int
                0x00000000008152a9                mp_obj_get_int_truncated
                0x00000000008152e8                mp_obj_get_array
                0x0000000000815613                mp_obj_get_array_fixed_n
                0x000000000081566c                mp_get_index
                0x000000000081577f                mp_obj_id
                0x00000000008157b5                mp_obj_len_maybe
                0x00000000008159aa                mp_obj_is_true
                0x0000000000815a53                mp_obj_equal_not_equal
                0x0000000000815fa7                mp_obj_equal
                0x0000000000815fd7                mp_obj_len
                0x0000000000816035                mp_obj_subscr
                0x0000000000816139                mp_get_buffer
 .text          0x00000000008161bb      0x174 build/py/objattrtuple.o
                0x00000000008162c7                mp_obj_new_attrtuple
 .text          0x000000000081632f       0xed build/py/objbool.o
 .text          0x000000000081641c      0x28e build/py/objboundmeth.o
                0x00000000008164fe                mp_call_method_self_n_kw
                0x0000000000816671                mp_obj_new_bound_meth
 .text          0x00000000008166aa       0xbc build/py/objcell.o
                0x0000000000816731                mp_obj_new_cell
 .text          0x0000000000816766      0x297 build/py/objclosure.o
                0x0000000000816989                mp_obj_new_closure
 .text          0x00000000008169fd     0x1055 build/py/objdict.o
                0x0000000000816f7e                mp_obj_is_dict_or_ordereddict
                0x000000000081760f                mp_obj_dict_get
                0x000000000081765c                mp_obj_dict_init
                0x0000000000817683                mp_obj_new_dict
                0x00000000008176bf                mp_obj_dict_make_new
                0x0000000000817823                mp_obj_dict_copy
                0x00000000008178f9                mp_obj_dict_len
                0x0000000000817906                mp_obj_dict_store
                0x0000000000817999                mp_obj_dict_delete
 .text          0x0000000000817a52      0xb63 build/py/objexcept.o
                0x0000000000817a52                mp_obj_exception_make_new
                0x0000000000817b48                mp_obj_exception_print
                0x0000000000817cd3                mp_init_emergency_exception_buf
                0x0000000000817cd8                mp_obj_is_native_exception_instance
                0x0000000000817d4d                mp_obj_new_exception
                0x0000000000817dc8                mp_obj_new_exception_args
                0x0000000000817e3c                mp_obj_new_exception_msg
                0x0000000000817f3c                mp_obj_new_exception_msg_vlist
                0x0000000000818104                mp_obj_new_exception_msg_varg
                0x0000000000818149                mp_obj_is_exception_type
                0x00000000008182fd                mp_obj_is_exception_instance
                0x0000000000818392                mp_obj_exception_get_value
                0x00000000008183bc                mp_obj_exception_attr
                0x000000000081842a                mp_obj_exception_match
                0x0000000000818476                mp_obj_exception_clear_traceback
                0x0000000000818494                mp_obj_exception_add_traceback
                0x0000000000818572                mp_obj_exception_get_traceback
 .text          0x00000000008185b5      0x9df build/py/objfun.o
                0x0000000000818a76                mp_obj_fun_get_name
                0x0000000000818ac8                mp_obj_new_fun_bc
 .text          0x0000000000818f94      0x4d4 build/py/objgenerator.o
                0x00000000008190e5                mp_obj_gen_resume
 .text          0x0000000000819468       0xd6 build/py/objgetitemiter.o
                0x0000000000819512                mp_obj_new_getitem_iter
 .text          0x000000000081953e      0x94a build/py/objint.o
                0x00000000008197f9                mp_int_format_size
                0x00000000008198b0                mp_obj_int_formatted
                0x0000000000819b2b                mp_obj_int_print
                0x0000000000819bb0                mp_obj_int_binary_op_extra_cases
 .text          0x0000000000819e88      0x956 build/py/objint_mpz.o
                0x0000000000819e88                mp_obj_int_new_mpz
                0x0000000000819ecc                mp_obj_int_formatted_impl
                0x0000000000819fdb                mp_obj_int_from_bytes_impl
                0x000000000081a026                mp_obj_int_to_bytes_impl
                0x000000000081a08e                mp_obj_int_sign
                0x000000000081a0ca                mp_obj_int_unary_op
                0x000000000081a1a7                mp_obj_new_int_from_ll
                0x000000000081a1e4                mp_obj_new_int
                0x000000000081a20b                mp_obj_new_int_from_ull
                0x000000000081a248                mp_obj_new_int_from_uint
                0x000000000081a273                mp_obj_new_int_from_str_len
                0x000000000081a2d5                mp_obj_int_get_truncated
                0x000000000081a2fc                mp_obj_int_get_checked
                0x000000000081a353                mp_obj_int_binary_op
                0x000000000081a784                mp_obj_int_get_uint_checked
 .text          0x000000000081a7de      0xfb8 build/py/objlist.o
                0x000000000081aac1                mp_obj_list_remove
                0x000000000081ac07                mp_obj_list_append
                0x000000000081b244                mp_obj_list_sort
                0x000000000081b30f                mp_obj_list_init
                0x000000000081b56e                mp_obj_new_list
                0x000000000081b5e5                mp_obj_list_make_new
                0x000000000081b6c0                mp_obj_list_get
                0x000000000081b6d3                mp_obj_list_set_len
                0x000000000081b6dc                mp_obj_list_store
 .text          0x000000000081b796      0x1a0 build/py/objmap.o
 .text          0x000000000081b936      0x39b build/py/objmodule.o
                0x000000000081bb06                mp_obj_new_module
                0x000000000081bbab                mp_module_get_builtin
                0x000000000081bc8a                mp_module_generic_attr
 .text          0x000000000081bcd1       0x41 build/py/objobject.o
 .text          0x000000000081bd12        0xd build/py/objpolyiter.o
 .text          0x000000000081bd1f       0x20 build/py/objnone.o
 .text          0x000000000081bd3f      0x30c build/py/objrange.o
 .text          0x000000000081c04b       0x29 build/py/objsingleton.o
 .text          0x000000000081c074     0x3937 build/py/objstr.o
                0x000000000081c1c7                mp_obj_str_get_buffer
                0x000000000081cb0a                mp_str_print_quoted
                0x000000000081cde2                find_subbytes
                0x000000000081ce79                mp_obj_str_binary_op
                0x000000000081d74f                str_index_to_ptr
                0x000000000081d77e                mp_obj_str_set_data
                0x000000000081d7b2                mp_obj_new_str_copy
                0x000000000081d83c                mp_obj_new_str_via_qstr
                0x000000000081d98e                mp_obj_new_str_from_vstr
                0x000000000081d9b1                mp_obj_new_bytes_from_vstr
                0x000000000081d9d4                mp_obj_new_str
                0x000000000081da21                mp_obj_str_make_new
                0x000000000081dbb6                mp_obj_str_intern
                0x000000000081dc05                mp_obj_new_bytes
                0x000000000081df1b                mp_obj_new_str_of_type
                0x000000000081e283                mp_obj_str_equal
                0x000000000081e3e5                mp_obj_str_get_qstr
                0x000000000081e438                mp_obj_str_get_str
                0x000000000081e4a2                mp_obj_str_get_data
                0x000000000081e523                mp_obj_str_split
                0x000000000081f8b9                mp_obj_str_format
                0x000000000081f97a                mp_obj_str_intern_checked
 .text          0x000000000081f9ab      0x7f1 build/py/objtuple.o
                0x000000000081f9ab                mp_obj_tuple_getiter
                0x000000000081fa02                mp_obj_tuple_print
                0x000000000081fbac                mp_obj_tuple_unary_op
                0x000000000081fc3d                mp_obj_tuple_subscr
                0x000000000081fc7f                mp_obj_new_tuple
                0x000000000081fe0a                mp_obj_tuple_binary_op
                0x0000000000820079                mp_obj_tuple_get
                0x0000000000820130                mp_obj_tuple_del
 .text          0x000000000082019c     0x2090 build/py/objtype.o
                0x0000000000820b47                mp_obj_instance_call
                0x0000000000820d43                mp_obj_instance_getiter
                0x00000000008218c5                mp_obj_instance_is_callable
                0x000000000082191e                mp_obj_new_type
                0x0000000000821e15                mp_load_super_method
                0x0000000000821e57                mp_obj_is_subclass_fast
                0x00000000008221e1                mp_obj_cast_to_native_base
 .text          0x000000000082222c      0x178 build/py/objzip.o
 .text          0x00000000008223a4       0xf9 build/py/opmethods.o
 .text          0x000000000082249d      0x435 build/py/sequence.o
                0x000000000082249d                mp_seq_multiply
                0x0000000000822500                mp_seq_extract_slice
                0x000000000082259f                mp_seq_cmp_bytes
                0x0000000000822668                mp_seq_cmp_objs
                0x0000000000822787                mp_seq_index_obj
                0x0000000000822866                mp_seq_count_obj
 .text          0x00000000008228d2      0x982 build/py/stream.o
                0x00000000008228d2                mp_stream_close
                0x0000000000822be8                mp_stream_rw
                0x0000000000822f0c                mp_stream_seek
                0x0000000000823030                mp_get_stream_raise
                0x00000000008230aa                mp_stream_write
                0x00000000008231ed                mp_stream_write_adaptor
                0x0000000000823208                mp_stream_unbuffered_iter
 .text          0x0000000000823254      0x6f5 build/py/binary.o
                0x0000000000823254                mp_binary_get_size
                0x0000000000823469                mp_binary_get_val_array
                0x000000000082356d                mp_binary_get_int
                0x00000000008235be                mp_binary_get_val
                0x00000000008236f8                mp_binary_set_int
                0x000000000082374b                mp_binary_set_val
                0x000000000082384c                mp_binary_set_val_array_from_int
                0x00000000008238a3                mp_binary_set_val_array
 .text          0x0000000000823949      0x89b build/py/builtinimport.o
                0x000000000082405f                mp_builtin___import___default
 .text          0x00000000008241e4      0x236 build/py/builtinevex.o
 .text          0x000000000082441a      0x9b1 build/py/modbuiltins.o
 .text          0x0000000000824dcb      0x123 build/py/modsys.o
                0x0000000000824ebe                mp_module_sys_attr
 *fill*         0x0000000000824eee        0x2 
 .text          0x0000000000824ef0     0x20ad build/py/vm.o
                0x0000000000824ef0                mp_execute_bytecode
 .text          0x0000000000826f9d      0x8ca build/py/bc.o
                0x0000000000826f9d                mp_encode_uint
                0x0000000000827010                mp_decode_uint
                0x0000000000827039                mp_decode_uint_value
                0x000000000082705b                mp_decode_uint_skip
                0x000000000082706d                mp_setup_code_state
 .text          0x0000000000827867       0xd1 build/py/smallint.o
                0x0000000000827867                mp_small_int_mul_overflow
                0x00000000008278dc                mp_small_int_modulo
                0x0000000000827906                mp_small_int_floor_divide
 .text          0x0000000000827938       0xf2 build/extmod/machine_mem.o
 .text          0x0000000000827a2a       0xc3 build/extmod/machine_pinbase.o
                0x0000000000827a39                pinbase_ioctl
 .text          0x0000000000827aed      0x13b build/extmod/machine_pulse.o
                0x0000000000827aed                machine_time_pulse_us
 .text          0x0000000000827c28      0x1ce build/extmod/machine_signal.o
 .text          0x0000000000827df6       0xa2 build/extmod/modmachine.o
                0x0000000000827e44                mod_machine_mem_get_addr
 .text          0x0000000000827e98       0x9a build/extmod/modos.o
 .text          0x0000000000827f32      0x80f build/extmod/modtime.o
 .text          0x0000000000828741       0x56 build/extmod/virtpin.o
                0x0000000000828741                mp_virtual_pin_read
                0x000000000082876d                mp_virtual_pin_write
 .text          0x0000000000828797       0x25 ../../../obj/lib/entry.o
                0x0000000000828797                _start
 .text          0x00000000008287bc       0x60 build/shared/runtime/gchelper_generic.o
                0x00000000008287bc                gc_helper_collect_regs_and_stack
 .text          0x000000000082881c      0x6f9 build/shared/timeutils/timeutils.o
                0x000000000082881c                timeutils_is_leap_year
                0x0000000000828890                timeutils_days_in_month
                0x00000000008288d8                timeutils_year_day
                0x0000000000828918                timeutils_seconds_since_2000_to_struct_time
                0x0000000000828bfd                timeutils_seconds_since_2000
                0x0000000000828cb8                timeutils_mktime_2000
                0x0000000000828e8f                timeutils_calc_weekday
 .text          0x0000000000828f15       0x2e build/gccollect.o
                0x0000000000828f15                gc_collect
 .text          0x0000000000828f43      0xa48 build/main.o
                0x0000000000829233                mp_hal_set_interrupt_char
                0x0000000000829238                nlr_jump_fail
                0x000000000082926f                main_
                0x0000000000829959                umain
 .text          0x000000000082998b      0x551 build/mphalport.o
                0x0000000000829c8a                mp_hal_stdin_rx_chr
                0x0000000000829ccb                mp_hal_stdout_tx_strn
                0x0000000000829cf8                mp_hal_stdout_tx_strn_cooked
                0x0000000000829d0e                mp_hal_stdout_tx_str
                0x0000000000829d42                mp_hal_ticks_ms
                0x0000000000829d77                mp_hal_ticks_us
                0x0000000000829dac                mp_hal_time_ns
                0x0000000000829de3                mp_hal_delay_ms
                0x0000000000829e36                mp_hal_get_random
 .text          0x0000000000829edc      0x20c build/modio.o
                0x0000000000829f97                mp_reader_new_file_from_fd
                0x000000000082a047                mp_reader_new_file
                0x000000000082a0bd                mp_import_stat
 .text          0x000000000082a0e8       0x8a build/lexer.o
                0x000000000082a0e8                mp_lexer_new_from_fd
                0x000000000082a12d                mp_lexer_new_from_file
 .text          0x000000000082a172       0xae ../../../obj/lib/libjos.a(libmain.o)
                0x000000000082a172                libmain
 .text          0x000000000082a220       0x27 ../../../obj/lib/libjos.a(exit.o)
                0x000000000082a220                exit
 .text          0x000000000082a247       0xa7 ../../../obj/lib/libjos.a(panic.o)
                0x000000000082a247                _panic
 .text          0x000000000082a2ee       0xfe ../../../obj/lib/libjos.a(printf.o)
                0x000000000082a33b                vcprintf
                0x000000000082a3a3                cprintf
 .text          0x000000000082a3ec      0x8d9 ../../../obj/lib/libjos.a(printfmt.o)
                0x000000000082a4c2                printfmt
                0x000000000082a503                vprintfmt
                0x000000000082ac2d                vsnprintf
                0x000000000082ac84                snprintf
 .text          0x000000000082acc5      0x4e9 ../../../obj/lib/libjos.a(string.o)
                0x000000000082acc5                strlen
                0x000000000082ace4                strnlen
                0x000000000082ad0b                strcpy
                0x000000000082ad27                strcat
                0x000000000082ad5f                strncpy
                0x000000000082ad8b                strlcpy
                0x000000000082adbf                strcmp
                0x000000000082ade6                strncmp
                0x000000000082ae28                strchr
                0x000000000082ae55                strfind
                0x000000000082ae77                strrchr
                0x000000000082aeba                memset
                0x000000000082af68                memmove
                0x000000000082afd3                memcpy
                0x000000000082afe9                strlcat
                0x000000000082b093                memcmp
                0x000000000082b0cf                memfind
                0x000000000082b0f3                strtol
 .text          0x000000000082b1ae      0x59c ../../../obj/lib/libjos.a(syscall.o)
                0x000000000082b1ae                sys_cputs
                0x000000000082b1df                sys_cgetc
                0x000000000082b214                sys_env_destroy
                0x000000000082b283                sys_getenvid
                0x000000000082b2b8                sys_yield
                0x000000000082b2ed                sys_region_refs
                0x000000000082b323                sys_region_refs2
                0x000000000082b353                sys_alloc_region
                0x000000000082b3be                sys_map_region
                0x000000000082b427                sys_map_physical_region
                0x000000000082b493                sys_unmap_region
                0x000000000082b4fe                sys_env_set_status
                0x000000000082b56b                sys_env_set_trapframe
                0x000000000082b5d8                sys_env_set_pgfault_upcall
                0x000000000082b645                sys_ipc_try_send
                0x000000000082b675                sys_ipc_recv
                0x000000000082b6e2                sys_gettime
                0x000000000082b717                sys_usleep
 .text          0x000000000082b74a       0x5f ../../../obj/lib/libjos.a(random.o)
                0x000000000082b74a                rand
                0x000000000082b76b                srand
                0x000000000082b77b                rand_init
 .text          0x000000000082b7a9      0x732 ../../../obj/lib/libjos.a(fd.o)
                0x000000000082b7a9                fd2num
                0x000000000082b7bf                fd2data
                0x000000000082b7df                fd_alloc
                0x000000000082b843                fd_lookup
                0x000000000082b892                dev_lookup
                0x000000000082b906                fd_close
                0x000000000082b9b4                close
                0x000000000082b9eb                close_all
                0x000000000082ba17                dup2
                0x000000000082bb3e                read
                0x000000000082bc00                readn
                0x000000000082bc6c                write
                0x000000000082bd29                seek
                0x000000000082bd5e                fdtruncate
                0x000000000082be06                fstat
                0x000000000082be8a                stat
 .text          0x000000000082bedb      0x369 ../../../obj/lib/libjos.a(file.o)
                0x000000000082c164                open
                0x000000000082c224                sync
 .text          0x000000000082c244      0xbd0 ../../../obj/lib/libjos.a(spawn.o)
                0x000000000082cc15                spawn
                0x000000000082cc30                spawnl
                0x000000000082cd79                system
 .text          0x000000000082ce14      0x4f6 ../../../obj/lib/libjos.a(pipe.o)
                0x000000000082d0a3                pipe
                0x000000000082d2b3                pipeisclosed
 .text          0x000000000082d30a       0xc7 ../../../obj/lib/libjos.a(wait.o)
                0x000000000082d30a                wait
 .text          0x000000000082d3d1      0x312 ../../../obj/lib/libjos.a(uvpt.o)
                0x000000000082d3d1                get_uvpt_entry
                0x000000000082d489                get_phys_addr
                0x000000000082d5b2                get_prot
                0x000000000082d5fc                is_page_dirty
                0x000000000082d619                is_page_present
                0x000000000082d632                foreach_shared_region
 .text          0x000000000082d6e3        0xe ../../../obj/lib/libjos.a(vsyscall.o)
                0x000000000082d6e3                vsys_gettime
 .text          0x000000000082d6f1      0x245 ../../../obj/lib/libjos.a(console.o)
                0x000000000082d82d                cputchar
                0x000000000082d854                getchar
                0x000000000082d891                iscons
                0x000000000082d8cb                opencons
 .text          0x000000000082d936      0x1de ../../../obj/lib/libjos.a(ipc.o)
                0x000000000082d936                ipc_recv
                0x000000000082da0f                ipc_send
                0x000000000082dab6                ipc_find_env
                0x000000000082db14                __text_end = .
                0x000000000082e000                . = ALIGN (0x1000)
 *fill*         0x000000000082db14      0x4ec 
                [!provide]                        PROVIDE (etext = .)

.iplt           0x000000000082e000        0x0
 .iplt          0x000000000082e000        0x0 build/py/mpstate.o

.rodata         0x000000000082e000     0xf000
                0x000000000082e000                __rodata_start = .
 *(.rodata .rodata.* .gnu.linkonce.r.* .data.rel.ro.local)
 .rodata.str1.8
                0x000000000082e000      0x10e build/py/gc.o
 .rodata.str1.1
                0x000000000082e10e       0x72 build/py/gc.o
                                         0x77 (size before relaxing)
 .rodata.str1.1
                0x000000000082e180      0x73b build/py/qstr.o
                                        0x83a (size before relaxing)
 *fill*         0x000000000082e8bb        0x5 
 .rodata.str1.8
                0x000000000082e8c0       0x21 build/py/qstr.o
 *fill*         0x000000000082e8e1       0x1f 
 .rodata        0x000000000082e900      0x977 build/py/qstr.o
                0x000000000082e900                mp_qstr_const_pool
                0x000000000082eb80                mp_qstr_const_lengths
                0x000000000082ebe0                mp_qstr_const_pool_static
                0x000000000082f1c0                mp_qstr_const_lengths_static
 *fill*         0x000000000082f277        0x1 
 .rodata.str1.8
                0x000000000082f278       0x5f build/py/mpprint.o
 .rodata.str1.1
                0x000000000082f2d7       0x25 build/py/mpprint.o
                                         0x3b (size before relaxing)
 *fill*         0x000000000082f2fc        0x4 
 .rodata        0x000000000082f300      0x211 build/py/mpprint.o
                0x000000000082f4d0                mp_plat_print
 *fill*         0x000000000082f511        0xf 
 .rodata        0x000000000082f520       0x80 build/py/unicode.o
 .rodata.str1.1
                0x000000000082f5a0       0x7a build/py/mpz.o
                                         0x8f (size before relaxing)
 *fill*         0x000000000082f61a        0x6 
 .rodata.str1.8
                0x000000000082f620       0x45 build/py/lexer.o
 .rodata.str1.1
                0x000000000082f665       0xbb build/py/lexer.o
                                         0xdd (size before relaxing)
 .rodata        0x000000000082f720      0x4cc build/py/lexer.o
 .rodata.str1.1
                0x000000000082fbec      0x110 build/py/parse.o
                                        0x125 (size before relaxing)
 *fill*         0x000000000082fcfc        0x4 
 .rodata.str1.8
                0x000000000082fd00      0x25e build/py/parse.o
 *fill*         0x000000000082ff5e        0x2 
 .rodata        0x000000000082ff60      0x4e9 build/py/parse.o
 .rodata.str1.1
                0x0000000000830449       0x55 build/py/scope.o
                                         0x6a (size before relaxing)
 *fill*         0x000000000083049e        0x2 
 .rodata.str1.8
                0x00000000008304a0       0x3f build/py/scope.o
 .rodata        0x00000000008304df        0x7 build/py/scope.o
 .rodata.str1.1
                0x00000000008304e6      0x25f build/py/compile.o
                                        0x2a1 (size before relaxing)
 *fill*         0x0000000000830745        0x3 
 .rodata.str1.8
                0x0000000000830748      0x819 build/py/compile.o
                                        0x851 (size before relaxing)
 *fill*         0x0000000000830f61       0x1f 
 .rodata        0x0000000000830f80      0x1c8 build/py/compile.o
 .rodata.str1.1
                0x0000000000831148       0x16 build/py/emitcommon.o
                                         0x36 (size before relaxing)
 *fill*         0x000000000083115e        0x2 
 .rodata.str1.8
                0x0000000000831160       0x3f build/py/emitcommon.o
 *fill*         0x000000000083119f        0x1 
 .rodata.str1.8
                0x00000000008311a0      0x1c4 build/py/emitbc.o
 .rodata.str1.1
                0x0000000000831364       0xa0 build/py/emitbc.o
                                         0xb5 (size before relaxing)
 *fill*         0x0000000000831404        0xc 
 .rodata        0x0000000000831410       0x30 build/py/emitbc.o
                0x0000000000831410                mp_emit_bc_method_table_delete_id_ops
                0x0000000000831420                mp_emit_bc_method_table_store_id_ops
                0x0000000000831430                mp_emit_bc_method_table_load_id_ops
 .rodata.str1.8
                0x0000000000831440       0xa6 build/py/parsenum.o
 .rodata.str1.1
                0x00000000008314e6       0x2d build/py/parsenum.o
                                         0x42 (size before relaxing)
 .rodata.str1.1
                0x0000000000831513       0x43 build/py/emitglue.o
                                         0x58 (size before relaxing)
 *fill*         0x0000000000831556        0x2 
 .rodata.str1.8
                0x0000000000831558      0x1ed build/py/emitglue.o
 *fill*         0x0000000000831745        0x3 
 .rodata.str1.8
                0x0000000000831748      0x395 build/py/runtime.o
                                        0x516 (size before relaxing)
 .rodata.str1.1
                0x0000000000831add      0x16a build/py/runtime.o
                                        0x18e (size before relaxing)
 *fill*         0x0000000000831c47        0x9 
 .rodata        0x0000000000831c50      0x180 build/py/runtime.o
                0x0000000000831dc0                mp_module___main__
 .rodata.str1.8
                0x0000000000831dd0      0x129 build/py/argcheck.o
 .rodata.str1.1
                0x0000000000831ef9       0x65 build/py/argcheck.o
                                         0x7a (size before relaxing)
 .rodata.str1.1
                0x0000000000831f5e        0x8 build/py/warning.o
                                          0xd (size before relaxing)
 *fill*         0x0000000000831f66        0x2 
 .rodata.str1.8
                0x0000000000831f68       0x2f build/py/map.o
 .rodata.str1.1
                0x0000000000831f97        0xf build/py/map.o
                                         0x24 (size before relaxing)
 *fill*         0x0000000000831fa6       0x1a 
 .rodata        0x0000000000831fc0       0x44 build/py/map.o
 .rodata.str1.1
                0x0000000000832004       0x50 build/py/obj.o
                                         0x67 (size before relaxing)
 *fill*         0x0000000000832054        0x4 
 .rodata.str1.8
                0x0000000000832058      0x23d build/py/obj.o
                                        0x36d (size before relaxing)
 *fill*         0x0000000000832295        0xb 
 .rodata        0x00000000008322a0       0x90 build/py/obj.o
                0x0000000000832320                mp_identity_obj
 .rodata.str1.1
                0x0000000000832330        0x9 build/py/objattrtuple.o
                                          0xb (size before relaxing)
 *fill*         0x0000000000832339        0x7 
 .rodata        0x0000000000832340       0x48 build/py/objattrtuple.o
                0x0000000000832340                mp_type_attrtuple
 .rodata.str1.1
                0x0000000000832388        0xb build/py/objbool.o
 *fill*         0x0000000000832388        0x8 
 .rodata        0x0000000000832390       0x38 build/py/objbool.o
                0x0000000000832390                mp_type_bool
 .rodata.str1.1
                0x00000000008323c8       0x14 build/py/objboundmeth.o
                                         0x16 (size before relaxing)
 *fill*         0x00000000008323dc        0x4 
 .rodata        0x00000000008323e0       0x38 build/py/objboundmeth.o
                0x00000000008323e0                mp_type_bound_meth
 .rodata.str1.1
                0x0000000000832418        0xa build/py/objcell.o
                                         0x12 (size before relaxing)
 *fill*         0x0000000000832422        0xe 
 .rodata        0x0000000000832430       0x20 build/py/objcell.o
 .rodata.str1.1
                0x0000000000832450       0x1f build/py/objclosure.o
                                         0x29 (size before relaxing)
 *fill*         0x000000000083246f        0x1 
 .rodata        0x0000000000832470       0x28 build/py/objclosure.o
                0x0000000000832470                mp_type_closure
 .rodata.str1.8
                0x0000000000832498      0xcd7 build/py/objdict.o
 .rodata.str1.1
                0x000000000083316f       0x57 build/py/objdict.o
                                         0x79 (size before relaxing)
 *fill*         0x00000000008331c6       0x1a 
 .rodata        0x00000000008331e0      0x300 build/py/objdict.o
                0x0000000000833470                mp_type_dict
                0x00000000008334c0                mp_const_empty_dict_obj
 .rodata.str1.1
                0x00000000008334e0       0x21 build/py/objexcept.o
                                         0x3a (size before relaxing)
 *fill*         0x0000000000833501        0x7 
 .rodata.str1.8
                0x0000000000833508       0x26 build/py/objexcept.o
                                        0x106 (size before relaxing)
 *fill*         0x000000000083352e        0x2 
 .rodata        0x0000000000833530      0x670 build/py/objexcept.o
                0x0000000000833530                mp_type_ValueError
                0x0000000000833570                mp_type_TypeError
                0x00000000008335b0                mp_type_IndentationError
                0x00000000008335f0                mp_type_SyntaxError
                0x0000000000833630                mp_type_NotImplementedError
                0x0000000000833670                mp_type_RuntimeError
                0x00000000008336b0                mp_type_OSError
                0x00000000008336f0                mp_type_NameError
                0x0000000000833730                mp_type_MemoryError
                0x0000000000833770                mp_type_KeyError
                0x00000000008337b0                mp_type_IndexError
                0x00000000008337f0                mp_type_LookupError
                0x0000000000833830                mp_type_ImportError
                0x0000000000833870                mp_type_EOFError
                0x00000000008338b0                mp_type_AttributeError
                0x00000000008338f0                mp_type_AssertionError
                0x0000000000833930                mp_type_ZeroDivisionError
                0x0000000000833970                mp_type_OverflowError
                0x00000000008339b0                mp_type_ArithmeticError
                0x00000000008339f0                mp_type_StopIteration
                0x0000000000833a30                mp_type_StopAsyncIteration
                0x0000000000833a70                mp_type_Exception
                0x0000000000833ab0                mp_type_GeneratorExit
                0x0000000000833af0                mp_type_KeyboardInterrupt
                0x0000000000833b30                mp_type_SystemExit
                0x0000000000833b70                mp_type_BaseException
 .rodata.str1.8
                0x0000000000833ba0      0x183 build/py/objfun.o
                                        0x2b3 (size before relaxing)
 .rodata.str1.1
                0x0000000000833d23       0x12 build/py/objfun.o
                                         0x27 (size before relaxing)
 *fill*         0x0000000000833d35        0xb 
 .rodata        0x0000000000833d40       0xc0 build/py/objfun.o
                0x0000000000833d40                mp_type_fun_bc
                0x0000000000833d60                mp_type_fun_builtin_var
                0x0000000000833d80                mp_type_fun_builtin_3
                0x0000000000833da0                mp_type_fun_builtin_2
                0x0000000000833dc0                mp_type_fun_builtin_1
                0x0000000000833de0                mp_type_fun_builtin_0
 .rodata.str1.1
                0x0000000000833e00       0x52 build/py/objgenerator.o
                                         0x67 (size before relaxing)
 *fill*         0x0000000000833e52        0x6 
 .rodata.str1.8
                0x0000000000833e58      0x498 build/py/objgenerator.o
                                        0x4b8 (size before relaxing)
 *fill*         0x00000000008342f0       0x10 
 .rodata        0x0000000000834300      0x120 build/py/objgenerator.o
                0x00000000008343b0                mp_type_gen_instance
                0x00000000008343e0                mp_type_gen_wrap
                0x0000000000834400                mp_const_GeneratorExit_obj
 .rodata        0x0000000000834420       0x20 build/py/objgetitemiter.o
 .rodata.str1.1
                0x0000000000834440       0x2a build/py/objint.o
                                         0x3f (size before relaxing)
 *fill*         0x000000000083446a        0x6 
 .rodata.str1.8
                0x0000000000834470       0x2c build/py/objint.o
                                        0x115 (size before relaxing)
 *fill*         0x000000000083449c        0x4 
 .rodata        0x00000000008344a0       0xe0 build/py/objint.o
                0x0000000000834530                mp_type_int
 .rodata.str1.8
                0x0000000000834580       0x5b build/py/objint_mpz.o
                                         0xb5 (size before relaxing)
 .rodata.str1.1
                0x00000000008345db       0x16 build/py/objint_mpz.o
                                         0x4f (size before relaxing)
 *fill*         0x00000000008345f1        0x7 
 .rodata        0x00000000008345f8      0x148 build/py/objint_mpz.o
 .rodata.str1.8
                0x0000000000834740     0x299a build/py/objlist.o
 .rodata.str1.1
                0x00000000008370da       0x29 build/py/objlist.o
                                         0x43 (size before relaxing)
 *fill*         0x0000000000837103       0x1d 
 .rodata        0x0000000000837120      0x220 build/py/objlist.o
                0x00000000008372f0                mp_type_list
 .rodata.str1.8
                0x0000000000837340      0x3ad build/py/objmap.o
 .rodata.str1.1
                0x00000000008376ed       0x12 build/py/objmap.o
                                         0x27 (size before relaxing)
 *fill*         0x00000000008376ff        0x1 
 .rodata        0x0000000000837700       0x28 build/py/objmap.o
                0x0000000000837700                mp_type_map
 .rodata.str1.1
                0x0000000000837728        0xe build/py/objmodule.o
                                          0xf (size before relaxing)
 *fill*         0x0000000000837736        0xa 
 .rodata        0x0000000000837740       0xd8 build/py/objmodule.o
                0x0000000000837740                mp_builtin_extensible_module_map
                0x0000000000837790                mp_builtin_module_map
                0x00000000008377f0                mp_type_module
 *fill*         0x0000000000837818        0x8 
 .rodata        0x0000000000837820       0x20 build/py/objobject.o
                0x0000000000837820                mp_type_object
 .rodata        0x0000000000837840       0x20 build/py/objpolyiter.o
                0x0000000000837840                mp_type_polymorph_iter
 .rodata.str1.1
                0x0000000000837860        0x5 build/py/objnone.o
 .rodata        0x0000000000837860       0x20 build/py/objnone.o
                0x0000000000837860                mp_type_NoneType
 .rodata.str1.1
                0x0000000000837880       0x20 build/py/objrange.o
                                         0x22 (size before relaxing)
 .rodata        0x00000000008378a0       0x70 build/py/objrange.o
                0x00000000008378a0                mp_type_range
 .rodata.str1.1
                0x0000000000837910       0x20 build/py/objsingleton.o
                                          0x3 (size before relaxing)
 .rodata        0x0000000000837910       0x30 build/py/objsingleton.o
                0x0000000000837910                mp_const_ellipsis_obj
                0x0000000000837920                mp_type_singleton
 .rodata.str1.8
                0x0000000000837940      0x445 build/py/objstr.o
                                        0x52d (size before relaxing)
 .rodata.str1.1
                0x0000000000837d85      0x153 build/py/objstr.o
                                        0x16c (size before relaxing)
 *fill*         0x0000000000837ed8        0x8 
 .rodata        0x0000000000837ee0      0x710 build/py/objstr.o
                0x00000000008381a0                mp_const_empty_bytes_obj
                0x00000000008381c0                mp_obj_str_locals_dict
                0x0000000000838330                str_islower_obj
                0x0000000000838340                str_isupper_obj
                0x0000000000838350                str_isdigit_obj
                0x0000000000838360                str_isalpha_obj
                0x0000000000838370                str_isspace_obj
                0x0000000000838380                str_upper_obj
                0x0000000000838390                str_lower_obj
                0x00000000008383a0                str_replace_obj
                0x00000000008383c0                str_format_obj
                0x00000000008383e0                str_rstrip_obj
                0x0000000000838400                str_lstrip_obj
                0x0000000000838420                str_strip_obj
                0x0000000000838440                str_endswith_obj
                0x0000000000838460                str_startswith_obj
                0x0000000000838480                str_rindex_obj
                0x00000000008384a0                str_index_obj
                0x00000000008384c0                str_rfind_obj
                0x00000000008384e0                str_find_obj
                0x0000000000838500                str_rsplit_obj
                0x0000000000838520                str_split_obj
                0x0000000000838540                str_join_obj
                0x0000000000838550                mp_type_str
                0x00000000008385a0                mp_type_bytes
 .rodata.str1.1
                0x00000000008385f0       0x16 build/py/objtuple.o
                                         0x32 (size before relaxing)
 *fill*         0x0000000000838606        0x2 
 .rodata.str1.8
                0x0000000000838608      0x8d0 build/py/objtuple.o
 *fill*         0x0000000000838ed8        0x8 
 .rodata        0x0000000000838ee0      0x1c0 build/py/objtuple.o
                0x0000000000838fd0                mp_const_empty_tuple_obj
                0x0000000000839050                mp_type_tuple
 .rodata.str1.8
                0x00000000008390a0      0x31b build/py/objtype.o
                                        0x3bb (size before relaxing)
 .rodata.str1.1
                0x00000000008393bb       0xa6 build/py/objtype.o
                                         0xdb (size before relaxing)
 *fill*         0x0000000000839461       0x1f 
 .rodata        0x0000000000839480      0x138 build/py/objtype.o
                0x0000000000839480                mp_type_classmethod
                0x00000000008394a0                mp_type_staticmethod
                0x00000000008394c0                mp_builtin_isinstance_obj
                0x00000000008394d0                mp_builtin_issubclass_obj
                0x00000000008394e0                mp_type_super
                0x0000000000839520                mp_binary_op_method_name
                0x0000000000839548                mp_unary_op_method_name
                0x0000000000839580                mp_type_type
 .rodata.str1.8
                0x00000000008395b8      0x3ad build/py/objzip.o
 .rodata.str1.1
                0x0000000000839965       0x12 build/py/objzip.o
                                         0x27 (size before relaxing)
 *fill*         0x0000000000839977        0x9 
 .rodata        0x0000000000839980       0x28 build/py/objzip.o
                0x0000000000839980                mp_type_zip
 *fill*         0x00000000008399a8        0x8 
 .rodata        0x00000000008399b0       0x40 build/py/opmethods.o
                0x00000000008399b0                mp_op_contains_obj
                0x00000000008399c0                mp_op_delitem_obj
                0x00000000008399d0                mp_op_setitem_obj
                0x00000000008399e0                mp_op_getitem_obj
 .rodata.str1.1
                0x00000000008399f0       0x17 build/py/sequence.o
 *fill*         0x0000000000839a07        0x1 
 .rodata.str1.8
                0x0000000000839a08       0x1f build/py/stream.o
 .rodata.str1.1
                0x0000000000839a27        0xd build/py/binary.o
 *fill*         0x0000000000839a34        0x4 
 .rodata        0x0000000000839a38      0x478 build/py/binary.o
 .rodata.str1.8
                0x0000000000839eb0       0x27 build/py/builtinimport.o
 .rodata.str1.1
                0x0000000000839ed7       0x59 build/py/builtinimport.o
                                         0x72 (size before relaxing)
 .rodata        0x0000000000839f30       0x18 build/py/builtinimport.o
                0x0000000000839f30                mp_builtin___import___obj
 .rodata.str1.8
                0x0000000000839f48       0x8d build/py/builtinevex.o
 .rodata.str1.1
                0x0000000000839f48       0x17 build/py/builtinevex.o
                                         0x2c (size before relaxing)
 *fill*         0x0000000000839f5f        0x1 
 .rodata        0x0000000000839f60       0x38 build/py/builtinevex.o
                0x0000000000839f60                mp_builtin_exec_obj
                0x0000000000839f80                mp_builtin_eval_obj
 .rodata.str1.1
                0x0000000000839f98       0x59 build/py/modbuiltins.o
                                         0x70 (size before relaxing)
 *fill*         0x0000000000839ff1        0x7 
 .rodata.str1.8
                0x0000000000839ff8       0x6b build/py/modbuiltins.o
 *fill*         0x000000000083a063       0x1d 
 .rodata        0x000000000083a080      0x778 build/py/modbuiltins.o
                0x000000000083a0a0                mp_module_builtins
                0x000000000083a0c0                mp_module_builtins_globals
                0x000000000083a5b0                mp_builtin_len_obj
                0x000000000083a5c0                mp_builtin_id_obj
                0x000000000083a5d0                mp_builtin_locals_obj
                0x000000000083a5e0                mp_builtin_globals_obj
                0x000000000083a5f0                mp_builtin_hasattr_obj
                0x000000000083a600                mp_builtin_setattr_obj
                0x000000000083a610                mp_builtin_getattr_obj
                0x000000000083a630                mp_builtin_sorted_obj
                0x000000000083a650                mp_builtin_sum_obj
                0x000000000083a670                mp_builtin_round_obj
                0x000000000083a690                mp_builtin_repr_obj
                0x000000000083a6a0                mp_builtin___repl_print___obj
                0x000000000083a6b0                mp_builtin_print_obj
                0x000000000083a6d0                mp_builtin_pow_obj
                0x000000000083a6f0                mp_builtin_ord_obj
                0x000000000083a700                mp_builtin_oct_obj
                0x000000000083a710                mp_builtin_next_obj
                0x000000000083a720                mp_builtin_iter_obj
                0x000000000083a730                mp_builtin_hex_obj
                0x000000000083a740                mp_builtin_hash_obj
                0x000000000083a750                mp_builtin_divmod_obj
                0x000000000083a760                mp_builtin_dir_obj
                0x000000000083a780                mp_builtin_chr_obj
                0x000000000083a790                mp_builtin_callable_obj
                0x000000000083a7a0                mp_builtin_bin_obj
                0x000000000083a7b0                mp_builtin_any_obj
                0x000000000083a7c0                mp_builtin_all_obj
                0x000000000083a7d0                mp_builtin_abs_obj
                0x000000000083a7e0                mp_builtin___build_class___obj
 *fill*         0x000000000083a7f8        0x8 
 .rodata        0x000000000083a800      0x2a0 build/py/modsys.o
                0x000000000083a800                mp_module_sys
                0x000000000083a920                mp_sys_exc_info_obj
                0x000000000083a930                mp_sys_print_exception_obj
                0x000000000083a950                mp_sys_exit_obj
 .rodata.str1.1
                0x000000000083aaa0       0x1d build/py/modsys.o
                                         0x1e (size before relaxing)
 *fill*         0x000000000083aabd        0x3 
 .rodata.str1.8
                0x000000000083aac0       0x31 build/py/modsys.o
 *fill*         0x000000000083aaf1        0x7 
 .rodata.str1.8
                0x000000000083aaf8      0x187 build/py/vm.o
 .rodata.str1.1
                0x000000000083ac7f       0x41 build/py/vm.o
                                         0x56 (size before relaxing)
 .rodata        0x000000000083acc0      0x800 build/py/vm.o
 .rodata.str1.8
                0x000000000083b4c0      0x11f build/py/bc.o
 .rodata.str1.1
                0x000000000083b5df       0x10 build/extmod/machine_mem.o
 *fill*         0x000000000083b5ef        0x1 
 .rodata        0x000000000083b5f0       0x58 build/extmod/machine_mem.o
                0x000000000083b5f0                machine_mem32_obj
                0x000000000083b600                machine_mem16_obj
                0x000000000083b610                machine_mem8_obj
                0x000000000083b620                machine_mem_type
 *fill*         0x000000000083b648        0x8 
 .rodata        0x000000000083b650       0x38 build/extmod/machine_pinbase.o
                0x000000000083b650                machine_pinbase_type
 *fill*         0x000000000083b688        0x8 
 .rodata        0x000000000083b690       0x18 build/extmod/machine_pulse.o
                0x000000000083b690                machine_time_pulse_us_obj
 *fill*         0x000000000083b6a8       0x18 
 .rodata        0x000000000083b6c0       0xc8 build/extmod/machine_signal.o
                0x000000000083b6c0                machine_signal_type
 .rodata.str1.8
                0x000000000083b788       0x28 build/extmod/modmachine.o
 *fill*         0x000000000083b7b0       0x10 
 .rodata        0x000000000083b7c0       0xf0 build/extmod/modmachine.o
                0x000000000083b7c0                mp_module_machine
 *fill*         0x000000000083b8b0       0x10 
 .rodata        0x000000000083b8c0       0x90 build/extmod/modos.o
                0x000000000083b8c0                mp_module_os
 .rodata.str1.1
                0x000000000083b950       0x2d build/extmod/modtime.o
 *fill*         0x000000000083b97d        0x3 
 .rodata.str1.8
                0x000000000083b980       0x26 build/extmod/modtime.o
 *fill*         0x000000000083b9a6       0x1a 
 .rodata        0x000000000083b9c0      0x1d8 build/extmod/modtime.o
                0x000000000083b9c0                mp_module_time
                0x000000000083bad0                mp_time_ticks_add_obj
                0x000000000083bae0                mp_time_ticks_diff_obj
                0x000000000083baf0                mp_time_ticks_cpu_obj
                0x000000000083bb00                mp_time_ticks_us_obj
                0x000000000083bb10                mp_time_ticks_ms_obj
                0x000000000083bb20                mp_time_sleep_us_obj
                0x000000000083bb30                mp_time_sleep_ms_obj
                0x000000000083bb40                mp_time_sleep_obj
                0x000000000083bb50                mp_time_time_ns_obj
                0x000000000083bb70                mod_time_mktime_obj
 *fill*         0x000000000083bb98        0x8 
 .rodata        0x000000000083bba0       0x2a build/shared/timeutils/timeutils.o
 .rodata.str1.1
                0x000000000083bbca       0x8d build/main.o
                                         0x8e (size before relaxing)
 *fill*         0x000000000083bc57        0x1 
 .rodata.str1.8
                0x000000000083bc58      0x257 build/main.o
 *fill*         0x000000000083beaf        0x1 
 .rodata        0x000000000083beb0       0x10 build/main.o
                0x000000000083beb0                mp_stderr_print
 .rodata.str1.1
                0x000000000083bec0        0xa ../../../obj/lib/libjos.a(libmain.o)
 *fill*         0x000000000083beca        0x6 
 .rodata.str1.8
                0x000000000083bed0       0x23 ../../../obj/lib/libjos.a(panic.o)
 .rodata.str1.1
                0x000000000083bef3        0x2 ../../../obj/lib/libjos.a(panic.o)
 .rodata.str1.1
                0x000000000083bef3      0x188 ../../../obj/lib/libjos.a(printfmt.o)
                                        0x192 (size before relaxing)
 *fill*         0x000000000083c07b        0x5 
 .rodata        0x000000000083c080      0x368 ../../../obj/lib/libjos.a(printfmt.o)
 .rodata.str1.8
                0x000000000083c3e8       0x1f ../../../obj/lib/libjos.a(printfmt.o)
 *fill*         0x000000000083c407        0x1 
 .rodata.str1.8
                0x000000000083c408       0x1f ../../../obj/lib/libjos.a(syscall.o)
 .rodata.str1.1
                0x000000000083c427        0xe ../../../obj/lib/libjos.a(syscall.o)
 *fill*         0x000000000083c435        0x3 
 .rodata.str1.8
                0x000000000083c438       0x42 ../../../obj/lib/libjos.a(fd.o)
 .rodata.str1.1
                0x000000000083c47a       0x39 ../../../obj/lib/libjos.a(fd.o)
 *fill*         0x000000000083c4b3        0xd 
 .rodata        0x000000000083c4c0       0x20 ../../../obj/lib/libjos.a(fd.o)
 .rodata.str1.1
                0x000000000083c4e0       0x39 ../../../obj/lib/libjos.a(file.o)
                                          0x5 (size before relaxing)
 .rodata.str1.1
                0x000000000083c4e0       0x9c ../../../obj/lib/libjos.a(spawn.o)
                                         0xb7 (size before relaxing)
 *fill*         0x000000000083c57c        0x4 
 .rodata.str1.8
                0x000000000083c580      0x14e ../../../obj/lib/libjos.a(spawn.o)
 .rodata.str1.1
                0x000000000083c6ce       0x17 ../../../obj/lib/libjos.a(pipe.o)
                                         0x2c (size before relaxing)
 *fill*         0x000000000083c6e5        0x3 
 .rodata.str1.8
                0x000000000083c6e8       0x24 ../../../obj/lib/libjos.a(pipe.o)
 .rodata.str1.1
                0x000000000083c70c       0x16 ../../../obj/lib/libjos.a(wait.o)
                                         0x2b (size before relaxing)
 .rodata.str1.1
                0x000000000083c722        0xf ../../../obj/lib/libjos.a(uvpt.o)
                                         0x24 (size before relaxing)
 .rodata.str1.1
                0x000000000083c731        0xc ../../../obj/lib/libjos.a(console.o)
 .rodata.str1.1
                0x000000000083c73d       0x1f ../../../obj/lib/libjos.a(ipc.o)
                0x000000000083d000                . = ALIGN (0x1000)
 *fill*         0x000000000083c75c      0x8a4 
                0x000000000083d000                __rodata_end = .

.eh_frame_hdr   0x000000000083d000        0x0
 .eh_frame_hdr  0x000000000083d000        0x0 ../../../obj/lib/libjos.a(libmain.o)

.rela.dyn       0x000000000083d000        0x0
 .rela.got      0x000000000083d000        0x0 build/py/mpstate.o
 .rela.iplt     0x000000000083d000        0x0 build/py/mpstate.o
 .rela.text     0x000000000083d000        0x0 build/py/mpstate.o

.data           0x000000000083d000     0x1000
                0x000000000083d000                __data_start = .
 *(.data .data.*)
 .data          0x000000000083d000        0x8 build/main.o
                0x000000000083d000                heap_size
 .data          0x000000000083d008        0x8 ../../../obj/lib/libjos.a(libmain.o)
                0x000000000083d008                binaryname
 .data          0x000000000083d010        0x4 ../../../obj/lib/libjos.a(random.o)
 *fill*         0x000000000083d014        0xc 
 .data          0x000000000083d020       0x84 ../../../obj/lib/libjos.a(random_data.o)
                0x000000000083d020                _dev_urandom_len
                0x000000000083d040                _dev_urandom
 *fill*         0x000000000083d0a4       0x1c 
 .data          0x000000000083d0c0       0x38 ../../../obj/lib/libjos.a(file.o)
                0x000000000083d0c0                devfile
 *fill*         0x000000000083d0f8        0x8 
 .data          0x000000000083d100       0x38 ../../../obj/lib/libjos.a(pipe.o)
                0x000000000083d100                devpipe
 *fill*         0x000000000083d138        0x8 
 .data          0x000000000083d140       0x38 ../../../obj/lib/libjos.a(console.o)
                0x000000000083d140                devcons
                0x000000000083d178                __data_end = .
                0x000000000083d178                __ctors_start = .
 *(SORT_BY_INIT_PRIORITY(.init_array.*) SORT_BY_INIT_PRIORITY(.ctors.*))
 *(.init_array .ctors)
                0x000000000083d178                __ctors_end = .
                0x000000000083d178                . = ALIGN (0x8)
                0x000000000083d178                __dtors_start = .
 *(SORT_BY_INIT_PRIORITY(.fini_array.*) SORT_BY_INIT_PRIORITY(.dtors.*))
 *(.fini_array .dtors)
                0x000000000083d178                __dtors_end = .
                0x000000000083d178                . = ALIGN (0x8)
 *(.got*)
 .got           0x000000000083d178        0x0 build/py/mpstate.o
 .got.plt       0x000000000083d178        0x0 build/py/mpstate.o
                0x000000000083e000                . = ALIGN (0x1000)
 *fill*         0x000000000083d178      0xe88 
                [!provide]                        PROVIDE (edata = .)

.igot.plt       0x000000000083e000        0x0
 .igot.plt      0x000000000083e000        0x0 build/py/mpstate.o

.bss            0x000000000083e000     0x3000
                0x000000000083e000                __bss_start = .
 *(.bss)
 .bss           0x000000000083e000      0x480 build/py/mpstate.o
                0x000000000083e000                mp_state_ctx
 .bss           0x000000000083e480        0x4 build/extmod/modmachine.o
                0x000000000083e480                pyexec_system_exit
 .bss           0x000000000083e484        0x1 build/main.o
 *fill*         0x000000000083e485        0x3 
 .bss           0x000000000083e488        0x8 ../../../obj/lib/libjos.a(libmain.o)
                0x000000000083e488                thisenv
 *fill*         0x000000000083e490      0xb70 
 .bss           0x000000000083f000     0x1004 ../../../obj/lib/libjos.a(file.o)
                0x000000000083f000                fsipcbuf
 *(COMMON)
                0x0000000000841000                . = ALIGN (0x1000)
 *fill*         0x0000000000840004      0xffc 
                0x0000000000841000                __bss_end = .
                [!provide]                        PROVIDE (end = .)

/DISCARD/
 *(.interp .eh_frame .note.* .comment)
LOAD ../../../obj/lib/libjos.a
LOAD /usr/lib/gcc/x86_64-linux-gnu/11/libgcc.a
OUTPUT(build/micropython elf64-x86-64)

.debug_info     0x0000000000000000    0x83703
 .debug_info    0x0000000000000000      0x87d build/py/mpstate.o
 .debug_info    0x000000000000087d      0x9bc build/py/nlr.o
 .debug_info    0x0000000000001239      0x93f build/py/nlrx64.o
 .debug_info    0x0000000000001b78      0xc49 build/py/malloc.o
 .debug_info    0x00000000000027c1     0x1b60 build/py/gc.o
 .debug_info    0x0000000000004321     0x1864 build/py/qstr.o
 .debug_info    0x0000000000005b85      0xf29 build/py/vstr.o
 .debug_info    0x0000000000006aae     0x12e0 build/py/mpprint.o
 .debug_info    0x0000000000007d8e      0x345 build/py/unicode.o
 .debug_info    0x00000000000080d3     0x2b4a build/py/mpz.o
 .debug_info    0x000000000000ac1d      0x2dc build/py/reader.o
 .debug_info    0x000000000000aef9     0x28c7 build/py/lexer.o
 .debug_info    0x000000000000d7c0     0x4d00 build/py/parse.o
 .debug_info    0x00000000000124c0      0xf56 build/py/scope.o
 .debug_info    0x0000000000013416     0xc17d build/py/compile.o
 .debug_info    0x000000000001f593      0xcad build/py/emitcommon.o
 .debug_info    0x0000000000020240     0x4445 build/py/emitbc.o
 .debug_info    0x0000000000024685      0x153 build/py/parsenumbase.o
 .debug_info    0x00000000000247d8     0x13e9 build/py/parsenum.o
 .debug_info    0x0000000000025bc1      0xb3b build/py/emitglue.o
 .debug_info    0x00000000000266fc     0x6dec build/py/runtime.o
 .debug_info    0x000000000002d4e8      0xac1 build/py/scheduler.o
 .debug_info    0x000000000002dfa9      0x8ee build/py/stackctrl.o
 .debug_info    0x000000000002e897      0x953 build/py/argcheck.o
 .debug_info    0x000000000002f1ea      0x326 build/py/warning.o
 .debug_info    0x000000000002f510      0x9c8 build/py/map.o
 .debug_info    0x000000000002fed8     0x2a83 build/py/obj.o
 .debug_info    0x000000000003295b      0xfa7 build/py/objattrtuple.o
 .debug_info    0x0000000000033902      0xeef build/py/objbool.o
 .debug_info    0x00000000000347f1     0x110a build/py/objboundmeth.o
 .debug_info    0x00000000000358fb      0xaf6 build/py/objcell.o
 .debug_info    0x00000000000363f1      0xea2 build/py/objclosure.o
 .debug_info    0x0000000000037293     0x33ae build/py/objdict.o
 .debug_info    0x000000000003a641     0x268e build/py/objexcept.o
 .debug_info    0x000000000003cccf     0x26ae build/py/objfun.o
 .debug_info    0x000000000003f37d     0x1f75 build/py/objgenerator.o
 .debug_info    0x00000000000412f2      0xb12 build/py/objgetitemiter.o
 .debug_info    0x0000000000041e04     0x23e8 build/py/objint.o
 .debug_info    0x00000000000441ec     0x1cd4 build/py/objint_mpz.o
 .debug_info    0x0000000000045ec0     0x2f81 build/py/objlist.o
 .debug_info    0x0000000000048e41      0xd42 build/py/objmap.o
 .debug_info    0x0000000000049b83     0x18d3 build/py/objmodule.o
 .debug_info    0x000000000004b456      0xa48 build/py/objobject.o
 .debug_info    0x000000000004be9e      0x90c build/py/objpolyiter.o
 .debug_info    0x000000000004c7aa      0x98b build/py/objnone.o
 .debug_info    0x000000000004d135     0x1275 build/py/objrange.o
 .debug_info    0x000000000004e3aa      0xa05 build/py/objsingleton.o
 .debug_info    0x000000000004edaf     0x6f2e build/py/objstr.o
 .debug_info    0x0000000000055cdd     0x2122 build/py/objtuple.o
 .debug_info    0x0000000000057dff     0x446a build/py/objtype.o
 .debug_info    0x000000000005c269      0xd41 build/py/objzip.o
 .debug_info    0x000000000005cfaa      0x779 build/py/opmethods.o
 .debug_info    0x000000000005d723      0xb37 build/py/sequence.o
 .debug_info    0x000000000005e25a     0x1ec5 build/py/stream.o
 .debug_info    0x000000000006011f      0xc42 build/py/binary.o
 .debug_info    0x0000000000060d61     0x287b build/py/builtinimport.o
 .debug_info    0x00000000000635dc     0x19af build/py/builtinevex.o
 .debug_info    0x0000000000064f8b     0x35ab build/py/modbuiltins.o
 .debug_info    0x0000000000068536     0x1795 build/py/modsys.o
 .debug_info    0x0000000000069ccb     0x3889 build/py/vm.o
 .debug_info    0x000000000006d554     0x11dc build/py/bc.o
 .debug_info    0x000000000006e730      0x14d build/py/smallint.o
 .debug_info    0x000000000006e87d      0xbf2 build/extmod/machine_mem.o
 .debug_info    0x000000000006f46f      0xb6d build/extmod/machine_pinbase.o
 .debug_info    0x000000000006ffdc      0x612 build/extmod/machine_pulse.o
 .debug_info    0x00000000000705ee     0x11d2 build/extmod/machine_signal.o
 .debug_info    0x00000000000717c0      0xeca build/extmod/modmachine.o
 .debug_info    0x000000000007268a      0xdda build/extmod/modos.o
 .debug_info    0x0000000000073464     0x17db build/extmod/modtime.o
 .debug_info    0x0000000000074c3f      0x360 build/extmod/virtpin.o
 .debug_info    0x0000000000074f9f       0x27 ../../../obj/lib/entry.o
 .debug_info    0x0000000000074fc6      0x9c2 build/shared/runtime/gchelper_generic.o
 .debug_info    0x0000000000075988      0x5d4 build/shared/timeutils/timeutils.o
 .debug_info    0x0000000000075f5c       0xce build/gccollect.o
 .debug_info    0x000000000007602a     0x26bb build/main.o
 .debug_info    0x00000000000786e5      0x6f3 build/mphalport.o
 .debug_info    0x0000000000078dd8      0x7a1 build/modio.o
 .debug_info    0x0000000000079579      0x646 build/lexer.o
 .debug_info    0x0000000000079bbf      0x59f ../../../obj/lib/libjos.a(libmain.o)
 .debug_info    0x000000000007a15e      0x105 ../../../obj/lib/libjos.a(exit.o)
 .debug_info    0x000000000007a263      0x239 ../../../obj/lib/libjos.a(panic.o)
 .debug_info    0x000000000007a49c      0x317 ../../../obj/lib/libjos.a(printf.o)
 .debug_info    0x000000000007a7b3      0xb07 ../../../obj/lib/libjos.a(printfmt.o)
 .debug_info    0x000000000007b2ba      0x92c ../../../obj/lib/libjos.a(string.o)
 .debug_info    0x000000000007bbe6     0x19c3 ../../../obj/lib/libjos.a(syscall.o)
 .debug_info    0x000000000007d5a9      0x173 ../../../obj/lib/libjos.a(random.o)
 .debug_info    0x000000000007d71c       0x6f ../../../obj/lib/libjos.a(random_data.o)
 .debug_info    0x000000000007d78b     0x1388 ../../../obj/lib/libjos.a(fd.o)
 .debug_info    0x000000000007eb13      0xc7e ../../../obj/lib/libjos.a(file.o)
 .debug_info    0x000000000007f791     0x18bc ../../../obj/lib/libjos.a(spawn.o)
 .debug_info    0x000000000008104d      0xb76 ../../../obj/lib/libjos.a(pipe.o)
 .debug_info    0x0000000000081bc3      0x532 ../../../obj/lib/libjos.a(wait.o)
 .debug_info    0x00000000000820f5      0x460 ../../../obj/lib/libjos.a(uvpt.o)
 .debug_info    0x0000000000082555      0x1cd ../../../obj/lib/libjos.a(vsyscall.o)
 .debug_info    0x0000000000082722      0x844 ../../../obj/lib/libjos.a(console.o)
 .debug_info    0x0000000000082f66      0x79d ../../../obj/lib/libjos.a(ipc.o)

.debug_abbrev   0x0000000000000000    0x11ba5
 .debug_abbrev  0x0000000000000000      0x1a9 build/py/mpstate.o
 .debug_abbrev  0x00000000000001a9      0x25a build/py/nlr.o
 .debug_abbrev  0x0000000000000403      0x25b build/py/nlrx64.o
 .debug_abbrev  0x000000000000065e      0x2b7 build/py/malloc.o
 .debug_abbrev  0x0000000000000915      0x54f build/py/gc.o
 .debug_abbrev  0x0000000000000e64      0x410 build/py/qstr.o
 .debug_abbrev  0x0000000000001274      0x301 build/py/vstr.o
 .debug_abbrev  0x0000000000001575      0x3cc build/py/mpprint.o
 .debug_abbrev  0x0000000000001941       0xf0 build/py/unicode.o
 .debug_abbrev  0x0000000000001a31      0x425 build/py/mpz.o
 .debug_abbrev  0x0000000000001e56      0x1ad build/py/reader.o
 .debug_abbrev  0x0000000000002003      0x538 build/py/lexer.o
 .debug_abbrev  0x000000000000253b      0x505 build/py/parse.o
 .debug_abbrev  0x0000000000002a40      0x2be build/py/scope.o
 .debug_abbrev  0x0000000000002cfe      0x5d0 build/py/compile.o
 .debug_abbrev  0x00000000000032ce      0x2be build/py/emitcommon.o
 .debug_abbrev  0x000000000000358c      0x503 build/py/emitbc.o
 .debug_abbrev  0x0000000000003a8f       0xb5 build/py/parsenumbase.o
 .debug_abbrev  0x0000000000003b44      0x338 build/py/parsenum.o
 .debug_abbrev  0x0000000000003e7c      0x26f build/py/emitglue.o
 .debug_abbrev  0x00000000000040eb      0x73a build/py/runtime.o
 .debug_abbrev  0x0000000000004825      0x2f3 build/py/scheduler.o
 .debug_abbrev  0x0000000000004b18      0x1f8 build/py/stackctrl.o
 .debug_abbrev  0x0000000000004d10      0x2d8 build/py/argcheck.o
 .debug_abbrev  0x0000000000004fe8      0x19c build/py/warning.o
 .debug_abbrev  0x0000000000005184      0x34b build/py/map.o
 .debug_abbrev  0x00000000000054cf      0x488 build/py/obj.o
 .debug_abbrev  0x0000000000005957      0x2fa build/py/objattrtuple.o
 .debug_abbrev  0x0000000000005c51      0x271 build/py/objbool.o
 .debug_abbrev  0x0000000000005ec2      0x297 build/py/objboundmeth.o
 .debug_abbrev  0x0000000000006159      0x216 build/py/objcell.o
 .debug_abbrev  0x000000000000636f      0x29b build/py/objclosure.o
 .debug_abbrev  0x000000000000660a      0x5a6 build/py/objdict.o
 .debug_abbrev  0x0000000000006bb0      0x4bd build/py/objexcept.o
 .debug_abbrev  0x000000000000706d      0x4a0 build/py/objfun.o
 .debug_abbrev  0x000000000000750d      0x490 build/py/objgenerator.o
 .debug_abbrev  0x000000000000799d      0x242 build/py/objgetitemiter.o
 .debug_abbrev  0x0000000000007bdf      0x4b7 build/py/objint.o
 .debug_abbrev  0x0000000000008096      0x402 build/py/objint_mpz.o
 .debug_abbrev  0x0000000000008498      0x584 build/py/objlist.o
 .debug_abbrev  0x0000000000008a1c      0x29e build/py/objmap.o
 .debug_abbrev  0x0000000000008cba      0x364 build/py/objmodule.o
 .debug_abbrev  0x000000000000901e      0x1c5 build/py/objobject.o
 .debug_abbrev  0x00000000000091e3      0x16d build/py/objpolyiter.o
 .debug_abbrev  0x0000000000009350      0x17f build/py/objnone.o
 .debug_abbrev  0x00000000000094cf      0x367 build/py/objrange.o
 .debug_abbrev  0x0000000000009836      0x1ad build/py/objsingleton.o
 .debug_abbrev  0x00000000000099e3      0x634 build/py/objstr.o
 .debug_abbrev  0x000000000000a017      0x4d1 build/py/objtuple.o
 .debug_abbrev  0x000000000000a4e8      0x5bb build/py/objtype.o
 .debug_abbrev  0x000000000000aaa3      0x2b3 build/py/objzip.o
 .debug_abbrev  0x000000000000ad56      0x1eb build/py/opmethods.o
 .debug_abbrev  0x000000000000af41      0x220 build/py/sequence.o
 .debug_abbrev  0x000000000000b161      0x504 build/py/stream.o
 .debug_abbrev  0x000000000000b665      0x311 build/py/binary.o
 .debug_abbrev  0x000000000000b976      0x52f build/py/builtinimport.o
 .debug_abbrev  0x000000000000bea5      0x3a0 build/py/builtinevex.o
 .debug_abbrev  0x000000000000c245      0x584 build/py/modbuiltins.o
 .debug_abbrev  0x000000000000c7c9      0x36b build/py/modsys.o
 .debug_abbrev  0x000000000000cb34      0x45f build/py/vm.o
 .debug_abbrev  0x000000000000cf93      0x3f8 build/py/bc.o
 .debug_abbrev  0x000000000000d38b       0xc0 build/py/smallint.o
 .debug_abbrev  0x000000000000d44b      0x21a build/extmod/machine_mem.o
 .debug_abbrev  0x000000000000d665      0x229 build/extmod/machine_pinbase.o
 .debug_abbrev  0x000000000000d88e      0x23e build/extmod/machine_pulse.o
 .debug_abbrev  0x000000000000dacc      0x2ea build/extmod/machine_signal.o
 .debug_abbrev  0x000000000000ddb6      0x2a0 build/extmod/modmachine.o
 .debug_abbrev  0x000000000000e056      0x28e build/extmod/modos.o
 .debug_abbrev  0x000000000000e2e4      0x3ec build/extmod/modtime.o
 .debug_abbrev  0x000000000000e6d0      0x15b build/extmod/virtpin.o
 .debug_abbrev  0x000000000000e82b       0x14 ../../../obj/lib/entry.o
 .debug_abbrev  0x000000000000e83f      0x24d build/shared/runtime/gchelper_generic.o
 .debug_abbrev  0x000000000000ea8c      0x152 build/shared/timeutils/timeutils.o
 .debug_abbrev  0x000000000000ebde       0x65 build/gccollect.o
 .debug_abbrev  0x000000000000ec43      0x5af build/main.o
 .debug_abbrev  0x000000000000f1f2      0x243 build/mphalport.o
 .debug_abbrev  0x000000000000f435      0x255 build/modio.o
 .debug_abbrev  0x000000000000f68a      0x17b build/lexer.o
 .debug_abbrev  0x000000000000f805      0x1d2 ../../../obj/lib/libjos.a(libmain.o)
 .debug_abbrev  0x000000000000f9d7       0xc0 ../../../obj/lib/libjos.a(exit.o)
 .debug_abbrev  0x000000000000fa97      0x15c ../../../obj/lib/libjos.a(panic.o)
 .debug_abbrev  0x000000000000fbf3      0x1a3 ../../../obj/lib/libjos.a(printf.o)
 .debug_abbrev  0x000000000000fd96      0x358 ../../../obj/lib/libjos.a(printfmt.o)
 .debug_abbrev  0x00000000000100ee      0x17f ../../../obj/lib/libjos.a(string.o)
 .debug_abbrev  0x000000000001026d      0x1db ../../../obj/lib/libjos.a(syscall.o)
 .debug_abbrev  0x0000000000010448      0x142 ../../../obj/lib/libjos.a(random.o)
 .debug_abbrev  0x000000000001058a       0x43 ../../../obj/lib/libjos.a(random_data.o)
 .debug_abbrev  0x00000000000105cd      0x366 ../../../obj/lib/libjos.a(fd.o)
 .debug_abbrev  0x0000000000010933      0x2e4 ../../../obj/lib/libjos.a(file.o)
 .debug_abbrev  0x0000000000010c17      0x444 ../../../obj/lib/libjos.a(spawn.o)
 .debug_abbrev  0x000000000001105b      0x2bf ../../../obj/lib/libjos.a(pipe.o)
 .debug_abbrev  0x000000000001131a      0x1a4 ../../../obj/lib/libjos.a(wait.o)
 .debug_abbrev  0x00000000000114be      0x16c ../../../obj/lib/libjos.a(uvpt.o)
 .debug_abbrev  0x000000000001162a       0xe9 ../../../obj/lib/libjos.a(vsyscall.o)
 .debug_abbrev  0x0000000000011713      0x265 ../../../obj/lib/libjos.a(console.o)
 .debug_abbrev  0x0000000000011978      0x22d ../../../obj/lib/libjos.a(ipc.o)

.debug_pubnames
                0x0000000000000000    0x569a6
 .debug_pubnames
                0x0000000000000000       0x63 build/py/mpstate.o
 .debug_pubnames
                0x0000000000000063       0x81 build/py/nlr.o
 .debug_pubnames
                0x00000000000000e4       0x5a build/py/nlrx64.o
 .debug_pubnames
                0x000000000000013e      0x108 build/py/malloc.o
 .debug_pubnames
                0x0000000000000246      0x1d2 build/py/gc.o
 .debug_pubnames
                0x0000000000000418     0x1745 build/py/qstr.o
 .debug_pubnames
                0x0000000000001b5d      0x238 build/py/vstr.o
 .debug_pubnames
                0x0000000000001d95      0x1a4 build/py/mpprint.o
 .debug_pubnames
                0x0000000000001f39       0xfd build/py/unicode.o
 .debug_pubnames
                0x0000000000002036      0x36b build/py/mpz.o
 .debug_pubnames
                0x00000000000023a1       0x73 build/py/reader.o
 .debug_pubnames
                0x0000000000002414      0xcaa build/py/lexer.o
 .debug_pubnames
                0x00000000000030be     0x5e0d build/py/parse.o
 .debug_pubnames
                0x0000000000008ecb     0x17f4 build/py/scope.o
 .debug_pubnames
                0x000000000000a6bf     0x47ee build/py/compile.o
 .debug_pubnames
                0x000000000000eead      0x311 build/py/emitcommon.o
 .debug_pubnames
                0x000000000000f1be     0x308a build/py/emitbc.o
 .debug_pubnames
                0x0000000000012248       0x28 build/py/parsenumbase.o
 .debug_pubnames
                0x0000000000012270     0x16ff build/py/parsenum.o
 .debug_pubnames
                0x000000000001396f      0x173 build/py/emitglue.o
 .debug_pubnames
                0x0000000000013ae2     0x2935 build/py/runtime.o
 .debug_pubnames
                0x0000000000016417       0xdc build/py/scheduler.o
 .debug_pubnames
                0x00000000000164f3       0x51 build/py/stackctrl.o
 .debug_pubnames
                0x0000000000016544      0x201 build/py/argcheck.o
 .debug_pubnames
                0x0000000000016745       0xa8 build/py/warning.o
 .debug_pubnames
                0x00000000000167ed      0x314 build/py/map.o
 .debug_pubnames
                0x0000000000016b01     0x20d4 build/py/obj.o
 .debug_pubnames
                0x0000000000018bd5     0x16f1 build/py/objattrtuple.o
 .debug_pubnames
                0x000000000001a2c6     0x17dc build/py/objbool.o
 .debug_pubnames
                0x000000000001baa2     0x1e1b build/py/objboundmeth.o
 .debug_pubnames
                0x000000000001d8bd     0x1639 build/py/objcell.o
 .debug_pubnames
                0x000000000001eef6     0x16bf build/py/objclosure.o
 .debug_pubnames
                0x00000000000205b5     0x23cc build/py/objdict.o
 .debug_pubnames
                0x0000000000022981     0x1c03 build/py/objexcept.o
 .debug_pubnames
                0x0000000000024584     0x183e build/py/objfun.o
 .debug_pubnames
                0x0000000000025dc2     0x1920 build/py/objgenerator.o
 .debug_pubnames
                0x00000000000276e2     0x15fe build/py/objgetitemiter.o
 .debug_pubnames
                0x0000000000028ce0     0x2036 build/py/objint.o
 .debug_pubnames
                0x000000000002ad16      0xb75 build/py/objint_mpz.o
 .debug_pubnames
                0x000000000002b88b     0x21f7 build/py/objlist.o
 .debug_pubnames
                0x000000000002da82     0x166c build/py/objmap.o
 .debug_pubnames
                0x000000000002f0ee     0x182d build/py/objmodule.o
 .debug_pubnames
                0x000000000003091b     0x15f3 build/py/objobject.o
 .debug_pubnames
                0x0000000000031f0e     0x15ba build/py/objpolyiter.o
 .debug_pubnames
                0x00000000000334c8     0x15ea build/py/objnone.o
 .debug_pubnames
                0x0000000000034ab2     0x1839 build/py/objrange.o
 .debug_pubnames
                0x00000000000362eb     0x15a8 build/py/objsingleton.o
 .debug_pubnames
                0x0000000000037893     0x2800 build/py/objstr.o
 .debug_pubnames
                0x000000000003a093     0x2042 build/py/objtuple.o
 .debug_pubnames
                0x000000000003c0d5     0x244d build/py/objtype.o
 .debug_pubnames
                0x000000000003e522     0x1664 build/py/objzip.o
 .debug_pubnames
                0x000000000003fb86      0x68a build/py/opmethods.o
 .debug_pubnames
                0x0000000000040210      0x700 build/py/sequence.o
 .debug_pubnames
                0x0000000000040910      0x519 build/py/stream.o
 .debug_pubnames
                0x0000000000040e29      0x1c8 build/py/binary.o
 .debug_pubnames
                0x0000000000040ff1     0x1a78 build/py/builtinimport.o
 .debug_pubnames
                0x0000000000042a69     0x16fa build/py/builtinevex.o
 .debug_pubnames
                0x0000000000044163     0x26bd build/py/modbuiltins.o
 .debug_pubnames
                0x0000000000046820     0x196c build/py/modsys.o
 .debug_pubnames
                0x000000000004818c     0x2112 build/py/vm.o
 .debug_pubnames
                0x000000000004a29e      0x1fe build/py/bc.o
 .debug_pubnames
                0x000000000004a49c       0x66 build/py/smallint.o
 .debug_pubnames
                0x000000000004a502     0x1663 build/extmod/machine_mem.o
 .debug_pubnames
                0x000000000004bb65     0x162b build/extmod/machine_pinbase.o
 .debug_pubnames
                0x000000000004d190       0xf9 build/extmod/machine_pulse.o
 .debug_pubnames
                0x000000000004d289     0x1721 build/extmod/machine_signal.o
 .debug_pubnames
                0x000000000004e9aa     0x16c9 build/extmod/modmachine.o
 .debug_pubnames
                0x0000000000050073     0x16a7 build/extmod/modos.o
 .debug_pubnames
                0x000000000005171a     0x1961 build/extmod/modtime.o
 .debug_pubnames
                0x000000000005307b       0x43 build/extmod/virtpin.o
 .debug_pubnames
                0x00000000000530be       0x62 build/shared/runtime/gchelper_generic.o
 .debug_pubnames
                0x0000000000053120       0xfa build/shared/timeutils/timeutils.o
 .debug_pubnames
                0x000000000005321a       0x6e build/gccollect.o
 .debug_pubnames
                0x0000000000053288     0x1a15 build/main.o
 .debug_pubnames
                0x0000000000054c9d      0x155 build/mphalport.o
 .debug_pubnames
                0x0000000000054df2      0x15b build/modio.o
 .debug_pubnames
                0x0000000000054f4d       0x8d build/lexer.o
 .debug_pubnames
                0x0000000000054fda       0x69 ../../../obj/lib/libjos.a(libmain.o)
 .debug_pubnames
                0x0000000000055043       0x3d ../../../obj/lib/libjos.a(exit.o)
 .debug_pubnames
                0x0000000000055080       0x47 ../../../obj/lib/libjos.a(panic.o)
 .debug_pubnames
                0x00000000000550c7       0x51 ../../../obj/lib/libjos.a(printf.o)
 .debug_pubnames
                0x0000000000055118      0x1e3 ../../../obj/lib/libjos.a(printfmt.o)
 .debug_pubnames
                0x00000000000552fb       0xe1 ../../../obj/lib/libjos.a(string.o)
 .debug_pubnames
                0x00000000000553dc      0x2fe ../../../obj/lib/libjos.a(syscall.o)
 .debug_pubnames
                0x00000000000556da       0x47 ../../../obj/lib/libjos.a(random.o)
 .debug_pubnames
                0x0000000000055721       0x38 ../../../obj/lib/libjos.a(random_data.o)
 .debug_pubnames
                0x0000000000055759      0x261 ../../../obj/lib/libjos.a(fd.o)
 .debug_pubnames
                0x00000000000559ba      0x328 ../../../obj/lib/libjos.a(file.o)
 .debug_pubnames
                0x0000000000055ce2      0x4b5 ../../../obj/lib/libjos.a(spawn.o)
 .debug_pubnames
                0x0000000000056197      0x14c ../../../obj/lib/libjos.a(pipe.o)
 .debug_pubnames
                0x00000000000562e3       0x85 ../../../obj/lib/libjos.a(wait.o)
 .debug_pubnames
                0x0000000000056368       0x8f ../../../obj/lib/libjos.a(uvpt.o)
 .debug_pubnames
                0x00000000000563f7      0x193 ../../../obj/lib/libjos.a(vsyscall.o)
 .debug_pubnames
                0x000000000005658a      0x25d ../../../obj/lib/libjos.a(console.o)
 .debug_pubnames
                0x00000000000567e7      0x1bf ../../../obj/lib/libjos.a(ipc.o)

.debug_pubtypes
                0x0000000000000000     0xfe00
 .debug_pubtypes
                0x0000000000000000      0x38f build/py/mpstate.o
 .debug_pubtypes
                0x000000000000038f      0x38f build/py/nlr.o
 .debug_pubtypes
                0x000000000000071e      0x38f build/py/nlrx64.o
 .debug_pubtypes
                0x0000000000000aad      0x38f build/py/malloc.o
 .debug_pubtypes
                0x0000000000000e3c      0x40c build/py/gc.o
 .debug_pubtypes
                0x0000000000001248      0x3b0 build/py/qstr.o
 .debug_pubtypes
                0x00000000000015f8      0x1ca build/py/vstr.o
 .debug_pubtypes
                0x00000000000017c2      0x1ca build/py/mpprint.o
 .debug_pubtypes
                0x000000000000198c       0xd7 build/py/unicode.o
 .debug_pubtypes
                0x0000000000001a63      0x178 build/py/mpz.o
 .debug_pubtypes
                0x0000000000001bdb      0x114 build/py/reader.o
 .debug_pubtypes
                0x0000000000001cef      0x452 build/py/lexer.o
 .debug_pubtypes
                0x0000000000002141      0x442 build/py/parse.o
 .debug_pubtypes
                0x0000000000002583      0x1c8 build/py/scope.o
 .debug_pubtypes
                0x000000000000274b      0x74e build/py/compile.o
 .debug_pubtypes
                0x0000000000002e99      0x36b build/py/emitcommon.o
 .debug_pubtypes
                0x0000000000003204      0x38a build/py/emitbc.o
 .debug_pubtypes
                0x000000000000358e       0xd1 build/py/parsenumbase.o
 .debug_pubtypes
                0x000000000000365f      0x246 build/py/parsenum.o
 .debug_pubtypes
                0x00000000000038a5      0x297 build/py/emitglue.o
 .debug_pubtypes
                0x0000000000003b3c      0x8e5 build/py/runtime.o
 .debug_pubtypes
                0x0000000000004421      0x38f build/py/scheduler.o
 .debug_pubtypes
                0x00000000000047b0      0x38f build/py/stackctrl.o
 .debug_pubtypes
                0x0000000000004b3f      0x238 build/py/argcheck.o
 .debug_pubtypes
                0x0000000000004d77      0x12a build/py/warning.o
 .debug_pubtypes
                0x0000000000004ea1      0x1df build/py/map.o
 .debug_pubtypes
                0x0000000000005080      0x338 build/py/obj.o
 .debug_pubtypes
                0x00000000000053b8      0x1ec build/py/objattrtuple.o
 .debug_pubtypes
                0x00000000000055a4      0x1b7 build/py/objbool.o
 .debug_pubtypes
                0x000000000000575b      0x1db build/py/objboundmeth.o
 .debug_pubtypes
                0x0000000000005936      0x18f build/py/objcell.o
 .debug_pubtypes
                0x0000000000005ac5      0x195 build/py/objclosure.o
 .debug_pubtypes
                0x0000000000005c5a      0x4f0 build/py/objdict.o
 .debug_pubtypes
                0x000000000000614a      0x4d1 build/py/objexcept.o
 .debug_pubtypes
                0x000000000000661b      0x5a6 build/py/objfun.o
 .debug_pubtypes
                0x0000000000006bc1      0x678 build/py/objgenerator.o
 .debug_pubtypes
                0x0000000000007239      0x1bd build/py/objgetitemiter.o
 .debug_pubtypes
                0x00000000000073f6      0x432 build/py/objint.o
 .debug_pubtypes
                0x0000000000007828      0x217 build/py/objint_mpz.o
 .debug_pubtypes
                0x0000000000007a3f      0x447 build/py/objlist.o
 .debug_pubtypes
                0x0000000000007e86      0x1a0 build/py/objmap.o
 .debug_pubtypes
                0x0000000000008026      0x558 build/py/objmodule.o
 .debug_pubtypes
                0x000000000000857e      0x159 build/py/objobject.o
 .debug_pubtypes
                0x00000000000086d7      0x160 build/py/objpolyiter.o
 .debug_pubtypes
                0x0000000000008837      0x16a build/py/objnone.o
 .debug_pubtypes
                0x00000000000089a1      0x259 build/py/objrange.o
 .debug_pubtypes
                0x0000000000008bfa      0x1a2 build/py/objsingleton.o
 .debug_pubtypes
                0x0000000000008d9c      0x49d build/py/objstr.o
 .debug_pubtypes
                0x0000000000009239      0x3ec build/py/objtuple.o
 .debug_pubtypes
                0x0000000000009625      0x4ce build/py/objtype.o
 .debug_pubtypes
                0x0000000000009af3      0x1c7 build/py/objzip.o
 .debug_pubtypes
                0x0000000000009cba      0x1e4 build/py/opmethods.o
 .debug_pubtypes
                0x0000000000009e9e      0x19a build/py/sequence.o
 .debug_pubtypes
                0x000000000000a038      0x32d build/py/stream.o
 .debug_pubtypes
                0x000000000000a365      0x1cb build/py/binary.o
 .debug_pubtypes
                0x000000000000a530      0x61c build/py/builtinimport.o
 .debug_pubtypes
                0x000000000000ab4c      0x513 build/py/builtinevex.o
 .debug_pubtypes
                0x000000000000b05f      0x62e build/py/modbuiltins.o
 .debug_pubtypes
                0x000000000000b68d      0x593 build/py/modsys.o
 .debug_pubtypes
                0x000000000000bc20      0x598 build/py/vm.o
 .debug_pubtypes
                0x000000000000c1b8      0x32b build/py/bc.o
 .debug_pubtypes
                0x000000000000c4e3       0xc3 build/py/smallint.o
 .debug_pubtypes
                0x000000000000c5a6      0x1db build/extmod/machine_mem.o
 .debug_pubtypes
                0x000000000000c781      0x1aa build/extmod/machine_pinbase.o
 .debug_pubtypes
                0x000000000000c92b      0x1fa build/extmod/machine_pulse.o
 .debug_pubtypes
                0x000000000000cb25      0x33b build/extmod/machine_signal.o
 .debug_pubtypes
                0x000000000000ce60      0x35d build/extmod/modmachine.o
 .debug_pubtypes
                0x000000000000d1bd      0x2af build/extmod/modos.o
 .debug_pubtypes
                0x000000000000d46c      0x37a build/extmod/modtime.o
 .debug_pubtypes
                0x000000000000d7e6      0x153 build/extmod/virtpin.o
 .debug_pubtypes
                0x000000000000d939      0x3b2 build/shared/runtime/gchelper_generic.o
 .debug_pubtypes
                0x000000000000dceb      0x136 build/shared/timeutils/timeutils.o
 .debug_pubtypes
                0x000000000000de21       0xa8 build/gccollect.o
 .debug_pubtypes
                0x000000000000dec9      0x505 build/main.o
 .debug_pubtypes
                0x000000000000e3ce       0xef build/mphalport.o
 .debug_pubtypes
                0x000000000000e4bd      0x18b build/modio.o
 .debug_pubtypes
                0x000000000000e648      0x179 build/lexer.o
 .debug_pubtypes
                0x000000000000e7c1      0x17a ../../../obj/lib/libjos.a(libmain.o)
 .debug_pubtypes
                0x000000000000e93b       0xe2 ../../../obj/lib/libjos.a(exit.o)
 .debug_pubtypes
                0x000000000000ea1d      0x116 ../../../obj/lib/libjos.a(panic.o)
 .debug_pubtypes
                0x000000000000eb33      0x116 ../../../obj/lib/libjos.a(printf.o)
 .debug_pubtypes
                0x000000000000ec49      0x140 ../../../obj/lib/libjos.a(printfmt.o)
 .debug_pubtypes
                0x000000000000ed89      0x13d ../../../obj/lib/libjos.a(string.o)
 .debug_pubtypes
                0x000000000000eec6      0x156 ../../../obj/lib/libjos.a(syscall.o)
 .debug_pubtypes
                0x000000000000f01c       0x3d ../../../obj/lib/libjos.a(random.o)
 .debug_pubtypes
                0x000000000000f059       0x4b ../../../obj/lib/libjos.a(random_data.o)
 .debug_pubtypes
                0x000000000000f0a4      0x1c3 ../../../obj/lib/libjos.a(fd.o)
 .debug_pubtypes
                0x000000000000f267      0x201 ../../../obj/lib/libjos.a(file.o)
 .debug_pubtypes
                0x000000000000f468      0x213 ../../../obj/lib/libjos.a(spawn.o)
 .debug_pubtypes
                0x000000000000f67b      0x158 ../../../obj/lib/libjos.a(pipe.o)
 .debug_pubtypes
                0x000000000000f7d3      0x17a ../../../obj/lib/libjos.a(wait.o)
 .debug_pubtypes
                0x000000000000f94d      0x11f ../../../obj/lib/libjos.a(uvpt.o)
 .debug_pubtypes
                0x000000000000fa6c       0xd7 ../../../obj/lib/libjos.a(vsyscall.o)
 .debug_pubtypes
                0x000000000000fb43      0x143 ../../../obj/lib/libjos.a(console.o)
 .debug_pubtypes
                0x000000000000fc86      0x17a ../../../obj/lib/libjos.a(ipc.o)

.debug_aranges  0x0000000000000000     0x11e0
 .debug_aranges
                0x0000000000000000       0x20 build/py/mpstate.o
 .debug_aranges
                0x0000000000000020       0x30 build/py/nlr.o
 .debug_aranges
                0x0000000000000050       0x30 build/py/nlrx64.o
 .debug_aranges
                0x0000000000000080       0x30 build/py/malloc.o
 .debug_aranges
                0x00000000000000b0       0x30 build/py/gc.o
 .debug_aranges
                0x00000000000000e0       0x30 build/py/qstr.o
 .debug_aranges
                0x0000000000000110       0x30 build/py/vstr.o
 .debug_aranges
                0x0000000000000140       0x30 build/py/mpprint.o
 .debug_aranges
                0x0000000000000170       0x30 build/py/unicode.o
 .debug_aranges
                0x00000000000001a0       0x30 build/py/mpz.o
 .debug_aranges
                0x00000000000001d0       0x30 build/py/reader.o
 .debug_aranges
                0x0000000000000200       0x30 build/py/lexer.o
 .debug_aranges
                0x0000000000000230       0x30 build/py/parse.o
 .debug_aranges
                0x0000000000000260       0x30 build/py/scope.o
 .debug_aranges
                0x0000000000000290       0x30 build/py/compile.o
 .debug_aranges
                0x00000000000002c0       0x30 build/py/emitcommon.o
 .debug_aranges
                0x00000000000002f0       0x30 build/py/emitbc.o
 .debug_aranges
                0x0000000000000320       0x30 build/py/parsenumbase.o
 .debug_aranges
                0x0000000000000350       0x30 build/py/parsenum.o
 .debug_aranges
                0x0000000000000380       0x30 build/py/emitglue.o
 .debug_aranges
                0x00000000000003b0       0x30 build/py/runtime.o
 .debug_aranges
                0x00000000000003e0       0x30 build/py/scheduler.o
 .debug_aranges
                0x0000000000000410       0x30 build/py/stackctrl.o
 .debug_aranges
                0x0000000000000440       0x30 build/py/argcheck.o
 .debug_aranges
                0x0000000000000470       0x30 build/py/warning.o
 .debug_aranges
                0x00000000000004a0       0x30 build/py/map.o
 .debug_aranges
                0x00000000000004d0       0x30 build/py/obj.o
 .debug_aranges
                0x0000000000000500       0x30 build/py/objattrtuple.o
 .debug_aranges
                0x0000000000000530       0x30 build/py/objbool.o
 .debug_aranges
                0x0000000000000560       0x30 build/py/objboundmeth.o
 .debug_aranges
                0x0000000000000590       0x30 build/py/objcell.o
 .debug_aranges
                0x00000000000005c0       0x30 build/py/objclosure.o
 .debug_aranges
                0x00000000000005f0       0x30 build/py/objdict.o
 .debug_aranges
                0x0000000000000620       0x30 build/py/objexcept.o
 .debug_aranges
                0x0000000000000650       0x30 build/py/objfun.o
 .debug_aranges
                0x0000000000000680       0x30 build/py/objgenerator.o
 .debug_aranges
                0x00000000000006b0       0x30 build/py/objgetitemiter.o
 .debug_aranges
                0x00000000000006e0       0x30 build/py/objint.o
 .debug_aranges
                0x0000000000000710       0x30 build/py/objint_mpz.o
 .debug_aranges
                0x0000000000000740       0x30 build/py/objlist.o
 .debug_aranges
                0x0000000000000770       0x30 build/py/objmap.o
 .debug_aranges
                0x00000000000007a0       0x30 build/py/objmodule.o
 .debug_aranges
                0x00000000000007d0       0x30 build/py/objobject.o
 .debug_aranges
                0x0000000000000800       0x30 build/py/objpolyiter.o
 .debug_aranges
                0x0000000000000830       0x30 build/py/objnone.o
 .debug_aranges
                0x0000000000000860       0x30 build/py/objrange.o
 .debug_aranges
                0x0000000000000890       0x30 build/py/objsingleton.o
 .debug_aranges
                0x00000000000008c0       0x30 build/py/objstr.o
 .debug_aranges
                0x00000000000008f0       0x30 build/py/objtuple.o
 .debug_aranges
                0x0000000000000920       0x30 build/py/objtype.o
 .debug_aranges
                0x0000000000000950       0x30 build/py/objzip.o
 .debug_aranges
                0x0000000000000980       0x30 build/py/opmethods.o
 .debug_aranges
                0x00000000000009b0       0x30 build/py/sequence.o
 .debug_aranges
                0x00000000000009e0       0x30 build/py/stream.o
 .debug_aranges
                0x0000000000000a10       0x30 build/py/binary.o
 .debug_aranges
                0x0000000000000a40       0x30 build/py/builtinimport.o
 .debug_aranges
                0x0000000000000a70       0x30 build/py/builtinevex.o
 .debug_aranges
                0x0000000000000aa0       0x30 build/py/modbuiltins.o
 .debug_aranges
                0x0000000000000ad0       0x30 build/py/modsys.o
 .debug_aranges
                0x0000000000000b00       0x30 build/py/vm.o
 .debug_aranges
                0x0000000000000b30       0x30 build/py/bc.o
 .debug_aranges
                0x0000000000000b60       0x30 build/py/smallint.o
 .debug_aranges
                0x0000000000000b90       0x30 build/extmod/machine_mem.o
 .debug_aranges
                0x0000000000000bc0       0x30 build/extmod/machine_pinbase.o
 .debug_aranges
                0x0000000000000bf0       0x30 build/extmod/machine_pulse.o
 .debug_aranges
                0x0000000000000c20       0x30 build/extmod/machine_signal.o
 .debug_aranges
                0x0000000000000c50       0x30 build/extmod/modmachine.o
 .debug_aranges
                0x0000000000000c80       0x30 build/extmod/modos.o
 .debug_aranges
                0x0000000000000cb0       0x30 build/extmod/modtime.o
 .debug_aranges
                0x0000000000000ce0       0x30 build/extmod/virtpin.o
 .debug_aranges
                0x0000000000000d10       0x30 ../../../obj/lib/entry.o
 .debug_aranges
                0x0000000000000d40       0x30 build/shared/runtime/gchelper_generic.o
 .debug_aranges
                0x0000000000000d70       0x30 build/shared/timeutils/timeutils.o
 .debug_aranges
                0x0000000000000da0       0x30 build/gccollect.o
 .debug_aranges
                0x0000000000000dd0       0x30 build/main.o
 .debug_aranges
                0x0000000000000e00       0x30 build/mphalport.o
 .debug_aranges
                0x0000000000000e30       0x30 build/modio.o
 .debug_aranges
                0x0000000000000e60       0x30 build/lexer.o
 .debug_aranges
                0x0000000000000e90       0x30 ../../../obj/lib/libjos.a(libmain.o)
 .debug_aranges
                0x0000000000000ec0       0x30 ../../../obj/lib/libjos.a(exit.o)
 .debug_aranges
                0x0000000000000ef0       0x30 ../../../obj/lib/libjos.a(panic.o)
 .debug_aranges
                0x0000000000000f20       0x30 ../../../obj/lib/libjos.a(printf.o)
 .debug_aranges
                0x0000000000000f50       0x30 ../../../obj/lib/libjos.a(printfmt.o)
 .debug_aranges
                0x0000000000000f80       0x30 ../../../obj/lib/libjos.a(string.o)
 .debug_aranges
                0x0000000000000fb0       0x30 ../../../obj/lib/libjos.a(syscall.o)
 .debug_aranges
                0x0000000000000fe0       0x30 ../../../obj/lib/libjos.a(random.o)
 .debug_aranges
                0x0000000000001010       0x20 ../../../obj/lib/libjos.a(random_data.o)
 .debug_aranges
                0x0000000000001030       0x30 ../../../obj/lib/libjos.a(fd.o)
 .debug_aranges
                0x0000000000001060       0x30 ../../../obj/lib/libjos.a(file.o)
 .debug_aranges
                0x0000000000001090       0x30 ../../../obj/lib/libjos.a(spawn.o)
 .debug_aranges
                0x00000000000010c0       0x30 ../../../obj/lib/libjos.a(pipe.o)
 .debug_aranges
                0x00000000000010f0       0x30 ../../../obj/lib/libjos.a(wait.o)
 .debug_aranges
                0x0000000000001120       0x30 ../../../obj/lib/libjos.a(uvpt.o)
 .debug_aranges
                0x0000000000001150       0x30 ../../../obj/lib/libjos.a(vsyscall.o)
 .debug_aranges
                0x0000000000001180       0x30 ../../../obj/lib/libjos.a(console.o)
 .debug_aranges
                0x00000000000011b0       0x30 ../../../obj/lib/libjos.a(ipc.o)

.debug_line     0x0000000000000000    0x23702
 .debug_line    0x0000000000000000      0x10a build/py/mpstate.o
 .debug_line    0x000000000000010a      0x1d9 build/py/nlr.o
 .debug_line    0x00000000000002e3      0x17d build/py/nlrx64.o
 .debug_line    0x0000000000000460      0x2f7 build/py/malloc.o
 .debug_line    0x0000000000000757     0x10f8 build/py/gc.o
 .debug_line    0x000000000000184f      0x60e build/py/qstr.o
 .debug_line    0x0000000000001e5d      0x466 build/py/vstr.o
 .debug_line    0x00000000000022c3      0x9d4 build/py/mpprint.o
 .debug_line    0x0000000000002c97      0x239 build/py/unicode.o
 .debug_line    0x0000000000002ed0     0x1ade build/py/mpz.o
 .debug_line    0x00000000000049ae      0x136 build/py/reader.o
 .debug_line    0x0000000000004ae4      0xd8a build/py/lexer.o
 .debug_line    0x000000000000586e     0x12da build/py/parse.o
 .debug_line    0x0000000000006b48      0x32f build/py/scope.o
 .debug_line    0x0000000000006e77     0x364f build/py/compile.o
 .debug_line    0x000000000000a4c6      0x2bb build/py/emitcommon.o
 .debug_line    0x000000000000a781     0x1076 build/py/emitbc.o
 .debug_line    0x000000000000b7f7      0x16a build/py/parsenumbase.o
 .debug_line    0x000000000000b961      0x39f build/py/parsenum.o
 .debug_line    0x000000000000bd00      0x320 build/py/emitglue.o
 .debug_line    0x000000000000c020     0x1e9c build/py/runtime.o
 .debug_line    0x000000000000debc      0x21a build/py/scheduler.o
 .debug_line    0x000000000000e0d6      0x14d build/py/stackctrl.o
 .debug_line    0x000000000000e223      0x282 build/py/argcheck.o
 .debug_line    0x000000000000e4a5      0x10d build/py/warning.o
 .debug_line    0x000000000000e5b2      0x51f build/py/map.o
 .debug_line    0x000000000000ead1      0xb1d build/py/obj.o
 .debug_line    0x000000000000f5ee      0x1e8 build/py/objattrtuple.o
 .debug_line    0x000000000000f7d6      0x19a build/py/objbool.o
 .debug_line    0x000000000000f970      0x25d build/py/objboundmeth.o
 .debug_line    0x000000000000fbcd       0xf9 build/py/objcell.o
 .debug_line    0x000000000000fcc6      0x1f6 build/py/objclosure.o
 .debug_line    0x000000000000febc      0xb71 build/py/objdict.o
 .debug_line    0x0000000000010a2d      0x82c build/py/objexcept.o
 .debug_line    0x0000000000011259      0x7e4 build/py/objfun.o
 .debug_line    0x0000000000011a3d      0x529 build/py/objgenerator.o
 .debug_line    0x0000000000011f66      0x175 build/py/objgetitemiter.o
 .debug_line    0x00000000000120db      0x6f5 build/py/objint.o
 .debug_line    0x00000000000127d0      0x728 build/py/objint_mpz.o
 .debug_line    0x0000000000012ef8      0xc3e build/py/objlist.o
 .debug_line    0x0000000000013b36      0x22a build/py/objmap.o
 .debug_line    0x0000000000013d60      0x3b8 build/py/objmodule.o
 .debug_line    0x0000000000014118       0xe9 build/py/objobject.o
 .debug_line    0x0000000000014201       0xb4 build/py/objpolyiter.o
 .debug_line    0x00000000000142b5       0xbd build/py/objnone.o
 .debug_line    0x0000000000014372      0x36a build/py/objrange.o
 .debug_line    0x00000000000146dc       0xc2 build/py/objsingleton.o
 .debug_line    0x000000000001479e     0x2c8f build/py/objstr.o
 .debug_line    0x000000000001742d      0x607 build/py/objtuple.o
 .debug_line    0x0000000000017a34     0x13b2 build/py/objtype.o
 .debug_line    0x0000000000018de6      0x20a build/py/objzip.o
 .debug_line    0x0000000000018ff0      0x119 build/py/opmethods.o
 .debug_line    0x0000000000019109      0x3e4 build/py/sequence.o
 .debug_line    0x00000000000194ed      0x7d4 build/py/stream.o
 .debug_line    0x0000000000019cc1      0x5b3 build/py/binary.o
 .debug_line    0x000000000001a274      0x691 build/py/builtinimport.o
 .debug_line    0x000000000001a905      0x2f2 build/py/builtinevex.o
 .debug_line    0x000000000001abf7      0x7e7 build/py/modbuiltins.o
 .debug_line    0x000000000001b3de      0x211 build/py/modsys.o
 .debug_line    0x000000000001b5ef     0x1f38 build/py/vm.o
 .debug_line    0x000000000001d527      0x652 build/py/bc.o
 .debug_line    0x000000000001db79      0x10c build/py/smallint.o
 .debug_line    0x000000000001dc85      0x1d5 build/extmod/machine_mem.o
 .debug_line    0x000000000001de5a      0x152 build/extmod/machine_pinbase.o
 .debug_line    0x000000000001dfac      0x1b4 build/extmod/machine_pulse.o
 .debug_line    0x000000000001e160      0x228 build/extmod/machine_signal.o
 .debug_line    0x000000000001e388      0x19f build/extmod/modmachine.o
 .debug_line    0x000000000001e527      0x17d build/extmod/modos.o
 .debug_line    0x000000000001e6a4      0x509 build/extmod/modtime.o
 .debug_line    0x000000000001ebad       0xfc build/extmod/virtpin.o
 .debug_line    0x000000000001eca9       0x49 ../../../obj/lib/entry.o
 .debug_line    0x000000000001ecf2      0x1ac build/shared/runtime/gchelper_generic.o
 .debug_line    0x000000000001ee9e      0x502 build/shared/timeutils/timeutils.o
 .debug_line    0x000000000001f3a0       0x7f build/gccollect.o
 .debug_line    0x000000000001f41f      0x70c build/main.o
 .debug_line    0x000000000001fb2b      0x424 build/mphalport.o
 .debug_line    0x000000000001ff4f      0x266 build/modio.o
 .debug_line    0x00000000000201b5       0xf8 build/lexer.o
 .debug_line    0x00000000000202ad      0x11e ../../../obj/lib/libjos.a(libmain.o)
 .debug_line    0x00000000000203cb       0xa2 ../../../obj/lib/libjos.a(exit.o)
 .debug_line    0x000000000002046d       0xdf ../../../obj/lib/libjos.a(panic.o)
 .debug_line    0x000000000002054c      0x120 ../../../obj/lib/libjos.a(printf.o)
 .debug_line    0x000000000002066c      0x685 ../../../obj/lib/libjos.a(printfmt.o)
 .debug_line    0x0000000000020cf1      0x715 ../../../obj/lib/libjos.a(string.o)
 .debug_line    0x0000000000021406      0x5e5 ../../../obj/lib/libjos.a(syscall.o)
 .debug_line    0x00000000000219eb       0xa8 ../../../obj/lib/libjos.a(random.o)
 .debug_line    0x0000000000021a93       0x33 ../../../obj/lib/libjos.a(random_data.o)
 .debug_line    0x0000000000021ac6      0x5bb ../../../obj/lib/libjos.a(fd.o)
 .debug_line    0x0000000000022081      0x2c6 ../../../obj/lib/libjos.a(file.o)
 .debug_line    0x0000000000022347      0x6e3 ../../../obj/lib/libjos.a(spawn.o)
 .debug_line    0x0000000000022a2a      0x3f7 ../../../obj/lib/libjos.a(pipe.o)
 .debug_line    0x0000000000022e21      0x116 ../../../obj/lib/libjos.a(wait.o)
 .debug_line    0x0000000000022f37      0x286 ../../../obj/lib/libjos.a(uvpt.o)
 .debug_line    0x00000000000231bd       0xbe ../../../obj/lib/libjos.a(vsyscall.o)
 .debug_line    0x000000000002327b      0x269 ../../../obj/lib/libjos.a(console.o)
 .debug_line    0x00000000000234e4      0x21e ../../../obj/lib/libjos.a(ipc.o)

.debug_str      0x0000000000000000    0x101df
 .debug_str     0x0000000000000000      0x6b2 build/py/mpstate.o
                                        0x88d (size before relaxing)
 .debug_str     0x00000000000006b2       0x77 build/py/nlr.o
                                        0x8cf (size before relaxing)
 .debug_str     0x0000000000000729      0x195 build/py/nlrx64.o
                                        0x8aa (size before relaxing)
 .debug_str     0x00000000000008be       0xfc build/py/malloc.o
                                        0x965 (size before relaxing)
 .debug_str     0x00000000000009ba      0x452 build/py/gc.o
                                        0xc01 (size before relaxing)
 .debug_str     0x0000000000000e0c     0x12d4 build/py/qstr.o
                                       0x1bb7 (size before relaxing)
 .debug_str     0x00000000000020e0      0x20e build/py/vstr.o
                                        0x62c (size before relaxing)
 .debug_str     0x00000000000022ee      0x1b9 build/py/mpprint.o
                                        0x639 (size before relaxing)
 .debug_str     0x00000000000024a7       0xc9 build/py/unicode.o
                                        0x2dc (size before relaxing)
 .debug_str     0x0000000000002570      0x403 build/py/mpz.o
                                        0x6af (size before relaxing)
 .debug_str     0x0000000000002973       0x7d build/py/reader.o
                                        0x2c2 (size before relaxing)
 .debug_str     0x00000000000029f0      0xabe build/py/lexer.o
                                       0x14ca (size before relaxing)
 .debug_str     0x00000000000034ae     0x35da build/py/parse.o
                                       0x55c6 (size before relaxing)
 .debug_str     0x0000000000006a88      0x2ec build/py/scope.o
                                       0x1748 (size before relaxing)
 .debug_str     0x0000000000006d74     0x21f4 build/py/compile.o
                                       0x505f (size before relaxing)
 .debug_str     0x0000000000008f68       0xba build/py/emitcommon.o
                                        0x9ad (size before relaxing)
 .debug_str     0x0000000000009022      0x408 build/py/emitbc.o
                                       0x3152 (size before relaxing)
 .debug_str     0x000000000000942a       0x34 build/py/parsenumbase.o
                                        0x241 (size before relaxing)
 .debug_str     0x000000000000945e      0x136 build/py/parsenum.o
                                       0x1f75 (size before relaxing)
 .debug_str     0x0000000000009594       0xf7 build/py/emitglue.o
                                        0x6eb (size before relaxing)
 .debug_str     0x000000000000968b      0xc5d build/py/runtime.o
                                       0x3c44 (size before relaxing)
 .debug_str     0x000000000000a2e8       0xca build/py/scheduler.o
                                        0x930 (size before relaxing)
 .debug_str     0x000000000000a3b2       0x54 build/py/stackctrl.o
                                        0x8a7 (size before relaxing)
 .debug_str     0x000000000000a406      0x184 build/py/argcheck.o
                                        0x6c4 (size before relaxing)
 .debug_str     0x000000000000a58a       0x4a build/py/warning.o
                                        0x341 (size before relaxing)
 .debug_str     0x000000000000a5d4       0xc2 build/py/map.o
                                        0x717 (size before relaxing)
 .debug_str     0x000000000000a696      0x2fb build/py/obj.o
                                       0x2148 (size before relaxing)
 .debug_str     0x000000000000a991       0xe0 build/py/objattrtuple.o
                                       0x1cb1 (size before relaxing)
 .debug_str     0x000000000000aa71       0x70 build/py/objbool.o
                                       0x1c7c (size before relaxing)
 .debug_str     0x000000000000aae1       0xb6 build/py/objboundmeth.o
                                       0x1cf8 (size before relaxing)
 .debug_str     0x000000000000ab97       0x4a build/py/objcell.o
                                       0x15b7 (size before relaxing)
 .debug_str     0x000000000000abe1       0x5c build/py/objclosure.o
                                       0x1674 (size before relaxing)
 .debug_str     0x000000000000ac3d      0x48f build/py/objdict.o
                                       0x256f (size before relaxing)
 .debug_str     0x000000000000b0cc      0x24e build/py/objexcept.o
                                       0x21d2 (size before relaxing)
 .debug_str     0x000000000000b31a      0x1bd build/py/objfun.o
                                       0x1f93 (size before relaxing)
 .debug_str     0x000000000000b4d7      0x1c1 build/py/objgenerator.o
                                       0x2183 (size before relaxing)
 .debug_str     0x000000000000b698       0x3c build/py/objgetitemiter.o
                                       0x15f5 (size before relaxing)
 .debug_str     0x000000000000b6d4      0x1dc build/py/objint.o
                                       0x2a3e (size before relaxing)
 .debug_str     0x000000000000b8b0       0xc0 build/py/objint_mpz.o
                                        0xe8e (size before relaxing)
 .debug_str     0x000000000000b970      0x2cd build/py/objlist.o
                                       0x2384 (size before relaxing)
 .debug_str     0x000000000000bc3d       0x56 build/py/objmap.o
                                       0x1626 (size before relaxing)
 .debug_str     0x000000000000bc93      0x1ce build/py/objmodule.o
                                       0x1ee9 (size before relaxing)
 .debug_str     0x000000000000be61       0x45 build/py/objobject.o
                                       0x1571 (size before relaxing)
 .debug_str     0x000000000000bea6       0x46 build/py/objpolyiter.o
                                       0x1537 (size before relaxing)
 .debug_str     0x000000000000beec       0x1e build/py/objnone.o
                                       0x155e (size before relaxing)
 .debug_str     0x000000000000bf0a       0xdc build/py/objrange.o
                                       0x18c1 (size before relaxing)
 .debug_str     0x000000000000bfe6       0x3a build/py/objsingleton.o
                                       0x15ad (size before relaxing)
 .debug_str     0x000000000000c020      0x784 build/py/objstr.o
                                       0x2c06 (size before relaxing)
 .debug_str     0x000000000000c7a4      0x112 build/py/objtuple.o
                                       0x2165 (size before relaxing)
 .debug_str     0x000000000000c8b6      0x378 build/py/objtype.o
                                       0x26df (size before relaxing)
 .debug_str     0x000000000000cc2e       0x46 build/py/objzip.o
                                       0x1645 (size before relaxing)
 .debug_str     0x000000000000cc74       0x65 build/py/opmethods.o
                                        0x9cc (size before relaxing)
 .debug_str     0x000000000000ccd9       0x84 build/py/sequence.o
                                        0xa12 (size before relaxing)
 .debug_str     0x000000000000cd5d      0x329 build/py/stream.o
                                        0xa87 (size before relaxing)
 .debug_str     0x000000000000d086       0xdd build/py/binary.o
                                        0x5b9 (size before relaxing)
 .debug_str     0x000000000000d163      0x2bd build/py/builtinimport.o
                                       0x2a21 (size before relaxing)
 .debug_str     0x000000000000d420       0x70 build/py/builtinevex.o
                                       0x24cf (size before relaxing)
 .debug_str     0x000000000000d490      0x4df build/py/modbuiltins.o
                                       0x2f8b (size before relaxing)
 .debug_str     0x000000000000d96f      0x2e6 build/py/modsys.o
                                       0x1f8a (size before relaxing)
 .debug_str     0x000000000000dc55      0x905 build/py/vm.o
                                       0x2fe9 (size before relaxing)
 .debug_str     0x000000000000e55a       0xe6 build/py/bc.o
                                        0x8a9 (size before relaxing)
 .debug_str     0x000000000000e640       0x2b build/py/smallint.o
                                        0x275 (size before relaxing)
 .debug_str     0x000000000000e66b       0xbc build/extmod/machine_mem.o
                                       0x168f (size before relaxing)
 .debug_str     0x000000000000e727       0x95 build/extmod/machine_pinbase.o
                                       0x15dc (size before relaxing)
 .debug_str     0x000000000000e7bc       0x9f build/extmod/machine_pulse.o
                                        0x54c (size before relaxing)
 .debug_str     0x000000000000e85b      0x10b build/extmod/machine_signal.o
                                       0x1893 (size before relaxing)
 .debug_str     0x000000000000e966       0xbd build/extmod/modmachine.o
                                       0x18b5 (size before relaxing)
 .debug_str     0x000000000000ea23       0x96 build/extmod/modos.o
                                       0x175c (size before relaxing)
 .debug_str     0x000000000000eab9      0x2d6 build/extmod/modtime.o
                                       0x1b3c (size before relaxing)
 .debug_str     0x000000000000ed8f       0x17 build/extmod/virtpin.o
                                        0x3ba (size before relaxing)
 .debug_str     0x000000000000eda6       0x31 ../../../obj/lib/entry.o
 .debug_str     0x000000000000edd7       0x76 build/shared/runtime/gchelper_generic.o
                                        0x8e3 (size before relaxing)
 .debug_str     0x000000000000ee4d      0x12c build/shared/timeutils/timeutils.o
                                        0x408 (size before relaxing)
 .debug_str     0x000000000000ef79        0xc build/gccollect.o
                                        0x247 (size before relaxing)
 .debug_str     0x000000000000ef85      0x1af build/main.o
                                       0x278a (size before relaxing)
 .debug_str     0x000000000000f134       0x8f build/mphalport.o
                                        0x3c6 (size before relaxing)
 .debug_str     0x000000000000f1c3      0x10f build/modio.o
                                        0x44d (size before relaxing)
 .debug_str     0x000000000000f2d2      0x10f build/lexer.o
                                        0xb29 (size before relaxing)
 .debug_str     0x000000000000f2d2      0x3c9 ../../../obj/lib/libjos.a(libmain.o)
                                        0x4c2 (size before relaxing)
 .debug_str     0x000000000000f69b       0x25 ../../../obj/lib/libjos.a(exit.o)
                                        0x1f5 (size before relaxing)
 .debug_str     0x000000000000f6c0       0x15 ../../../obj/lib/libjos.a(panic.o)
                                        0x26d (size before relaxing)
 .debug_str     0x000000000000f6d5       0x21 ../../../obj/lib/libjos.a(printf.o)
                                        0x272 (size before relaxing)
 .debug_str     0x000000000000f6f6      0x1ab ../../../obj/lib/libjos.a(printfmt.o)
                                        0x434 (size before relaxing)
 .debug_str     0x000000000000f8a1       0x70 ../../../obj/lib/libjos.a(string.o)
                                        0x2d5 (size before relaxing)
 .debug_str     0x000000000000f911      0x1f8 ../../../obj/lib/libjos.a(syscall.o)
                                        0x5e7 (size before relaxing)
 .debug_str     0x000000000000fb09       0x47 ../../../obj/lib/libjos.a(random.o)
                                        0x1a3 (size before relaxing)
 .debug_str     0x000000000000fb50       0x12 ../../../obj/lib/libjos.a(random_data.o)
                                        0x194 (size before relaxing)
 .debug_str     0x000000000000fb62       0xc9 ../../../obj/lib/libjos.a(fd.o)
                                        0x727 (size before relaxing)
 .debug_str     0x000000000000fc2b      0x1ca ../../../obj/lib/libjos.a(file.o)
                                        0x629 (size before relaxing)
 .debug_str     0x000000000000fdf5      0x223 ../../../obj/lib/libjos.a(spawn.o)
                                        0xa21 (size before relaxing)
 .debug_str     0x0000000000010018       0x7c ../../../obj/lib/libjos.a(pipe.o)
                                        0x3bb (size before relaxing)
 .debug_str     0x0000000000010094        0xb ../../../obj/lib/libjos.a(wait.o)
                                        0x4bc (size before relaxing)
 .debug_str     0x000000000001009f       0x7b ../../../obj/lib/libjos.a(uvpt.o)
                                        0x281 (size before relaxing)
 .debug_str     0x000000000001011a       0x35 ../../../obj/lib/libjos.a(vsyscall.o)
                                        0x2f5 (size before relaxing)
 .debug_str     0x000000000001014f       0x65 ../../../obj/lib/libjos.a(console.o)
                                        0x44f (size before relaxing)
 .debug_str     0x00000000000101b4       0x2b ../../../obj/lib/libjos.a(ipc.o)
                                        0x5e3 (size before relaxing)

.debug_loc      0x0000000000000000    0x69583
 .debug_loc     0x0000000000000000       0xf3 build/py/nlr.o
 .debug_loc     0x00000000000000f3       0xdf build/py/nlrx64.o
 .debug_loc     0x00000000000001d2      0x618 build/py/malloc.o
 .debug_loc     0x00000000000007ea     0x20ca build/py/gc.o
 .debug_loc     0x00000000000028b4      0xbca build/py/qstr.o
 .debug_loc     0x000000000000347e     0x1284 build/py/vstr.o
 .debug_loc     0x0000000000004702     0x1f7c build/py/mpprint.o
 .debug_loc     0x000000000000667e      0x2bf build/py/unicode.o
 .debug_loc     0x000000000000693d     0x6923 build/py/mpz.o
 .debug_loc     0x000000000000d260      0x2a3 build/py/reader.o
 .debug_loc     0x000000000000d503     0x1e47 build/py/lexer.o
 .debug_loc     0x000000000000f34a     0x3753 build/py/parse.o
 .debug_loc     0x0000000000012a9d      0x751 build/py/scope.o
 .debug_loc     0x00000000000131ee     0xcfad build/py/compile.o
 .debug_loc     0x000000000002019b      0x70b build/py/emitcommon.o
 .debug_loc     0x00000000000208a6     0x4d02 build/py/emitbc.o
 .debug_loc     0x00000000000255a8      0x41a build/py/parsenumbase.o
 .debug_loc     0x00000000000259c2      0x7a5 build/py/parsenum.o
 .debug_loc     0x0000000000026167      0x881 build/py/emitglue.o
 .debug_loc     0x00000000000269e8     0x5cda build/py/runtime.o
 .debug_loc     0x000000000002c6c2      0x155 build/py/scheduler.o
 .debug_loc     0x000000000002c817      0xb7e build/py/argcheck.o
 .debug_loc     0x000000000002d395      0x146 build/py/warning.o
 .debug_loc     0x000000000002d4db      0xb91 build/py/map.o
 .debug_loc     0x000000000002e06c     0x2146 build/py/obj.o
 .debug_loc     0x00000000000301b2      0x432 build/py/objattrtuple.o
 .debug_loc     0x00000000000305e4      0x5df build/py/objbool.o
 .debug_loc     0x0000000000030bc3      0x94c build/py/objboundmeth.o
 .debug_loc     0x000000000003150f      0x1e7 build/py/objcell.o
 .debug_loc     0x00000000000316f6      0x5dc build/py/objclosure.o
 .debug_loc     0x0000000000031cd2     0x2852 build/py/objdict.o
 .debug_loc     0x0000000000034524     0x1820 build/py/objexcept.o
 .debug_loc     0x0000000000035d44     0x212c build/py/objfun.o
 .debug_loc     0x0000000000037e70      0xcf5 build/py/objgenerator.o
 .debug_loc     0x0000000000038b65      0x17d build/py/objgetitemiter.o
 .debug_loc     0x0000000000038ce2     0x1a78 build/py/objint.o
 .debug_loc     0x000000000003a75a     0x17cd build/py/objint_mpz.o
 .debug_loc     0x000000000003bf27     0x25a7 build/py/objlist.o
 .debug_loc     0x000000000003e4ce      0x50e build/py/objmap.o
 .debug_loc     0x000000000003e9dc      0x819 build/py/objmodule.o
 .debug_loc     0x000000000003f1f5      0x20d build/py/objobject.o
 .debug_loc     0x000000000003f402       0x7a build/py/objpolyiter.o
 .debug_loc     0x000000000003f47c       0xb7 build/py/objnone.o
 .debug_loc     0x000000000003f533      0xe3e build/py/objrange.o
 .debug_loc     0x0000000000040371       0xf4 build/py/objsingleton.o
 .debug_loc     0x0000000000040465     0x7a52 build/py/objstr.o
 .debug_loc     0x0000000000047eb7     0x15f8 build/py/objtuple.o
 .debug_loc     0x00000000000494af     0x446b build/py/objtype.o
 .debug_loc     0x000000000004d91a      0x4a5 build/py/objzip.o
 .debug_loc     0x000000000004ddbf      0x376 build/py/opmethods.o
 .debug_loc     0x000000000004e135     0x10dc build/py/sequence.o
 .debug_loc     0x000000000004f211     0x1f0f build/py/stream.o
 .debug_loc     0x0000000000051120     0x1474 build/py/binary.o
 .debug_loc     0x0000000000052594     0x1255 build/py/builtinimport.o
 .debug_loc     0x00000000000537e9      0x5ee build/py/builtinevex.o
 .debug_loc     0x0000000000053dd7     0x177a build/py/modbuiltins.o
 .debug_loc     0x0000000000055551      0x2f2 build/py/modsys.o
 .debug_loc     0x0000000000055843     0x39ad build/py/vm.o
 .debug_loc     0x00000000000591f0     0x15d4 build/py/bc.o
 .debug_loc     0x000000000005a7c4       0x9e build/py/smallint.o
 .debug_loc     0x000000000005a862      0x478 build/extmod/machine_mem.o
 .debug_loc     0x000000000005acda      0x1a5 build/extmod/machine_pinbase.o
 .debug_loc     0x000000000005ae7f      0x39d build/extmod/machine_pulse.o
 .debug_loc     0x000000000005b21c      0x850 build/extmod/machine_signal.o
 .debug_loc     0x000000000005ba6c       0xde build/extmod/modmachine.o
 .debug_loc     0x000000000005bb4a      0x128 build/extmod/modos.o
 .debug_loc     0x000000000005bc72      0x9e2 build/extmod/modtime.o
 .debug_loc     0x000000000005c654      0x21e build/extmod/virtpin.o
 .debug_loc     0x000000000005c872       0x7d build/shared/runtime/gchelper_generic.o
 .debug_loc     0x000000000005c8ef      0xe35 build/shared/timeutils/timeutils.o
 .debug_loc     0x000000000005d724      0xe86 build/main.o
 .debug_loc     0x000000000005e5aa      0x7c9 build/mphalport.o
 .debug_loc     0x000000000005ed73      0x543 build/modio.o
 .debug_loc     0x000000000005f2b6      0x11e build/lexer.o
 .debug_loc     0x000000000005f3d4       0x99 ../../../obj/lib/libjos.a(libmain.o)
 .debug_loc     0x000000000005f46d       0x3d ../../../obj/lib/libjos.a(exit.o)
 .debug_loc     0x000000000005f4aa       0xdb ../../../obj/lib/libjos.a(panic.o)
 .debug_loc     0x000000000005f585      0x1d7 ../../../obj/lib/libjos.a(printf.o)
 .debug_loc     0x000000000005f75c     0x1c3a ../../../obj/lib/libjos.a(printfmt.o)
 .debug_loc     0x0000000000061396     0x14cd ../../../obj/lib/libjos.a(string.o)
 .debug_loc     0x0000000000062863     0x263c ../../../obj/lib/libjos.a(syscall.o)
 .debug_loc     0x0000000000064e9f       0x2e ../../../obj/lib/libjos.a(random.o)
 .debug_loc     0x0000000000064ecd     0x10ac ../../../obj/lib/libjos.a(fd.o)
 .debug_loc     0x0000000000065f79      0x7ac ../../../obj/lib/libjos.a(file.o)
 .debug_loc     0x0000000000066725     0x176a ../../../obj/lib/libjos.a(spawn.o)
 .debug_loc     0x0000000000067e8f      0x8cf ../../../obj/lib/libjos.a(pipe.o)
 .debug_loc     0x000000000006875e       0x7f ../../../obj/lib/libjos.a(wait.o)
 .debug_loc     0x00000000000687dd      0x3f2 ../../../obj/lib/libjos.a(uvpt.o)
 .debug_loc     0x0000000000068bcf       0x26 ../../../obj/lib/libjos.a(vsyscall.o)
 .debug_loc     0x0000000000068bf5      0x514 ../../../obj/lib/libjos.a(console.o)
 .debug_loc     0x0000000000069109      0x47a ../../../obj/lib/libjos.a(ipc.o)

.debug_frame    0x0000000000000000     0x9fa8
 .debug_frame   0x0000000000000000       0xc0 build/py/nlr.o
 .debug_frame   0x00000000000000c0       0x58 build/py/nlrx64.o
 .debug_frame   0x0000000000000118      0x188 build/py/malloc.o
 .debug_frame   0x00000000000002a0      0x360 build/py/gc.o
 .debug_frame   0x0000000000000600      0x208 build/py/qstr.o
 .debug_frame   0x0000000000000808      0x448 build/py/vstr.o
 .debug_frame   0x0000000000000c50      0x1a0 build/py/mpprint.o
 .debug_frame   0x0000000000000df0      0x150 build/py/unicode.o
 .debug_frame   0x0000000000000f40      0x738 build/py/mpz.o
 .debug_frame   0x0000000000001678       0x98 build/py/reader.o
 .debug_frame   0x0000000000001710      0x178 build/py/lexer.o
 .debug_frame   0x0000000000001888      0x3b8 build/py/parse.o
 .debug_frame   0x0000000000001c40      0x140 build/py/scope.o
 .debug_frame   0x0000000000001d80     0x1160 build/py/compile.o
 .debug_frame   0x0000000000002ee0      0x130 build/py/emitcommon.o
 .debug_frame   0x0000000000003010      0xb80 build/py/emitbc.o
 .debug_frame   0x0000000000003b90       0x30 build/py/parsenumbase.o
 .debug_frame   0x0000000000003bc0       0xa8 build/py/parsenum.o
 .debug_frame   0x0000000000003c68       0xc0 build/py/emitglue.o
 .debug_frame   0x0000000000003d28      0x890 build/py/runtime.o
 .debug_frame   0x00000000000045b8       0xe0 build/py/scheduler.o
 .debug_frame   0x0000000000004698       0x80 build/py/stackctrl.o
 .debug_frame   0x0000000000004718       0xe0 build/py/argcheck.o
 .debug_frame   0x00000000000047f8       0x78 build/py/warning.o
 .debug_frame   0x0000000000004870      0x140 build/py/map.o
 .debug_frame   0x00000000000049b0      0x438 build/py/obj.o
 .debug_frame   0x0000000000004de8       0xa8 build/py/objattrtuple.o
 .debug_frame   0x0000000000004e90       0xc8 build/py/objbool.o
 .debug_frame   0x0000000000004f58      0x118 build/py/objboundmeth.o
 .debug_frame   0x0000000000005070       0x80 build/py/objcell.o
 .debug_frame   0x00000000000050f0       0xd8 build/py/objclosure.o
 .debug_frame   0x00000000000051c8      0x618 build/py/objdict.o
 .debug_frame   0x00000000000057e0      0x3d0 build/py/objexcept.o
 .debug_frame   0x0000000000005bb0      0x1e0 build/py/objfun.o
 .debug_frame   0x0000000000005d90      0x1c0 build/py/objgenerator.o
 .debug_frame   0x0000000000005f50       0x68 build/py/objgetitemiter.o
 .debug_frame   0x0000000000005fb8      0x190 build/py/objint.o
 .debug_frame   0x0000000000006148      0x2d8 build/py/objint_mpz.o
 .debug_frame   0x0000000000006420      0x498 build/py/objlist.o
 .debug_frame   0x00000000000068b8       0x98 build/py/objmap.o
 .debug_frame   0x0000000000006950      0x138 build/py/objmodule.o
 .debug_frame   0x0000000000006a88       0x48 build/py/objobject.o
 .debug_frame   0x0000000000006ad0       0x40 build/py/objpolyiter.o
 .debug_frame   0x0000000000006b10       0x40 build/py/objnone.o
 .debug_frame   0x0000000000006b50      0x138 build/py/objrange.o
 .debug_frame   0x0000000000006c88       0x40 build/py/objsingleton.o
 .debug_frame   0x0000000000006cc8      0xb80 build/py/objstr.o
 .debug_frame   0x0000000000007848      0x260 build/py/objtuple.o
 .debug_frame   0x0000000000007aa8      0x620 build/py/objtype.o
 .debug_frame   0x00000000000080c8       0x98 build/py/objzip.o
 .debug_frame   0x0000000000008160       0xe0 build/py/opmethods.o
 .debug_frame   0x0000000000008240      0x190 build/py/sequence.o
 .debug_frame   0x00000000000083d0      0x3f0 build/py/stream.o
 .debug_frame   0x00000000000087c0      0x190 build/py/binary.o
 .debug_frame   0x0000000000008950      0x190 build/py/builtinimport.o
 .debug_frame   0x0000000000008ae0       0xa0 build/py/builtinevex.o
 .debug_frame   0x0000000000008b80      0x4e8 build/py/modbuiltins.o
 .debug_frame   0x0000000000009068       0xd8 build/py/modsys.o
 .debug_frame   0x0000000000009140       0x58 build/py/vm.o
 .debug_frame   0x0000000000009198       0xe0 build/py/bc.o
 .debug_frame   0x0000000000009278       0x60 build/py/smallint.o
 .debug_frame   0x00000000000092d8       0x78 build/extmod/machine_mem.o
 .debug_frame   0x0000000000009350       0x60 build/extmod/machine_pinbase.o
 .debug_frame   0x00000000000093b0       0x98 build/extmod/machine_pulse.o
 .debug_frame   0x0000000000009448      0x130 build/extmod/machine_signal.o
 .debug_frame   0x0000000000009578       0x90 build/extmod/modmachine.o
 .debug_frame   0x0000000000009608       0x70 build/extmod/modos.o
 .debug_frame   0x0000000000009678      0x200 build/extmod/modtime.o
 .debug_frame   0x0000000000009878       0x68 build/extmod/virtpin.o
 .debug_frame   0x00000000000098e0       0x58 build/shared/runtime/gchelper_generic.o
 .debug_frame   0x0000000000009938      0x150 build/shared/timeutils/timeutils.o
 .debug_frame   0x0000000000009a88       0x40 build/gccollect.o
 .debug_frame   0x0000000000009ac8      0x168 build/main.o
 .debug_frame   0x0000000000009c30      0x1e8 build/mphalport.o
 .debug_frame   0x0000000000009e18      0x118 build/modio.o
 .debug_frame   0x0000000000009f30       0x78 build/lexer.o

.debug_ranges   0x0000000000000000     0x6f20
 .debug_ranges  0x0000000000000000      0x9c0 build/py/gc.o
 .debug_ranges  0x00000000000009c0      0x1d0 build/py/qstr.o
 .debug_ranges  0x0000000000000b90       0x30 build/py/vstr.o
 .debug_ranges  0x0000000000000bc0       0xe0 build/py/mpprint.o
 .debug_ranges  0x0000000000000ca0      0x4f0 build/py/mpz.o
 .debug_ranges  0x0000000000001190      0x590 build/py/lexer.o
 .debug_ranges  0x0000000000001720      0x560 build/py/parse.o
 .debug_ranges  0x0000000000001c80       0xf0 build/py/scope.o
 .debug_ranges  0x0000000000001d70     0x1190 build/py/compile.o
 .debug_ranges  0x0000000000002f00       0x30 build/py/emitcommon.o
 .debug_ranges  0x0000000000002f30      0x370 build/py/emitbc.o
 .debug_ranges  0x00000000000032a0       0x70 build/py/parsenum.o
 .debug_ranges  0x0000000000003310      0x7a0 build/py/runtime.o
 .debug_ranges  0x0000000000003ab0       0x30 build/py/scheduler.o
 .debug_ranges  0x0000000000003ae0       0x60 build/py/argcheck.o
 .debug_ranges  0x0000000000003b40       0x80 build/py/map.o
 .debug_ranges  0x0000000000003bc0       0xe0 build/py/obj.o
 .debug_ranges  0x0000000000003ca0       0x30 build/py/objboundmeth.o
 .debug_ranges  0x0000000000003cd0      0x170 build/py/objdict.o
 .debug_ranges  0x0000000000003e40       0x30 build/py/objexcept.o
 .debug_ranges  0x0000000000003e70       0x30 build/py/objgetitemiter.o
 .debug_ranges  0x0000000000003ea0       0x60 build/py/objint.o
 .debug_ranges  0x0000000000003f00       0x90 build/py/objint_mpz.o
 .debug_ranges  0x0000000000003f90      0x130 build/py/objlist.o
 .debug_ranges  0x00000000000040c0       0x60 build/py/objmap.o
 .debug_ranges  0x0000000000004120       0x90 build/py/objmodule.o
 .debug_ranges  0x00000000000041b0       0x30 build/py/objrange.o
 .debug_ranges  0x00000000000041e0      0x910 build/py/objstr.o
 .debug_ranges  0x0000000000004af0       0x30 build/py/objtuple.o
 .debug_ranges  0x0000000000004b20      0x320 build/py/objtype.o
 .debug_ranges  0x0000000000004e40       0x60 build/py/objzip.o
 .debug_ranges  0x0000000000004ea0      0x140 build/py/sequence.o
 .debug_ranges  0x0000000000004fe0      0x190 build/py/stream.o
 .debug_ranges  0x0000000000005170       0xa0 build/py/binary.o
 .debug_ranges  0x0000000000005210      0x130 build/py/builtinimport.o
 .debug_ranges  0x0000000000005340       0x70 build/py/modbuiltins.o
 .debug_ranges  0x00000000000053b0      0xee0 build/py/vm.o
 .debug_ranges  0x0000000000006290      0x2d0 build/py/bc.o
 .debug_ranges  0x0000000000006560       0x60 build/extmod/machine_mem.o
 .debug_ranges  0x00000000000065c0       0x40 build/extmod/modtime.o
 .debug_ranges  0x0000000000006600      0x160 build/main.o
 .debug_ranges  0x0000000000006760       0x30 build/modio.o
 .debug_ranges  0x0000000000006790      0x1c0 ../../../obj/lib/libjos.a(printfmt.o)
 .debug_ranges  0x0000000000006950       0x40 ../../../obj/lib/libjos.a(string.o)
 .debug_ranges  0x0000000000006990      0x1b0 ../../../obj/lib/libjos.a(syscall.o)
 .debug_ranges  0x0000000000006b40       0x30 ../../../obj/lib/libjos.a(random.o)
 .debug_ranges  0x0000000000006b70       0xc0 ../../../obj/lib/libjos.a(fd.o)
 .debug_ranges  0x0000000000006c30      0x150 ../../../obj/lib/libjos.a(spawn.o)
 .debug_ranges  0x0000000000006d80       0xd0 ../../../obj/lib/libjos.a(pipe.o)
 .debug_ranges  0x0000000000006e50       0x60 ../../../obj/lib/libjos.a(uvpt.o)
 .debug_ranges  0x0000000000006eb0       0x70 ../../../obj/lib/libjos.a(ipc.o)

Cross Reference Table

Symbol                                            File
_GLOBAL_OFFSET_TABLE_                             build/py/mpstate.o
__ctors_end                                       ../../../obj/lib/libjos.a(libmain.o)
__ctors_start                                     ../../../obj/lib/libjos.a(libmain.o)
_dev_urandom                                      ../../../obj/lib/libjos.a(random_data.o)
                                                  ../../../obj/lib/libjos.a(random.o)
_dev_urandom_len                                  ../../../obj/lib/libjos.a(random_data.o)
                                                  ../../../obj/lib/libjos.a(random.o)
_panic                                            ../../../obj/lib/libjos.a(panic.o)
                                                  ../../../obj/lib/libjos.a(ipc.o)
                                                  ../../../obj/lib/libjos.a(uvpt.o)
                                                  ../../../obj/lib/libjos.a(wait.o)
                                                  ../../../obj/lib/libjos.a(pipe.o)
                                                  ../../../obj/lib/libjos.a(spawn.o)
                                                  ../../../obj/lib/libjos.a(syscall.o)
                                                  build/py/vm.o
                                                  build/py/modbuiltins.o
                                                  build/py/builtinevex.o
                                                  build/py/builtinimport.o
                                                  build/py/objzip.o
                                                  build/py/objtype.o
                                                  build/py/objtuple.o
                                                  build/py/objstr.o
                                                  build/py/objmap.o
                                                  build/py/objlist.o
                                                  build/py/objint_mpz.o
                                                  build/py/objint.o
                                                  build/py/objgenerator.o
                                                  build/py/objfun.o
                                                  build/py/objexcept.o
                                                  build/py/objdict.o
                                                  build/py/obj.o
                                                  build/py/map.o
                                                  build/py/argcheck.o
                                                  build/py/runtime.o
                                                  build/py/persistentcode.o
                                                  build/py/emitglue.o
                                                  build/py/parsenum.o
                                                  build/py/emitbc.o
                                                  build/py/emitcommon.o
                                                  build/py/compile.o
                                                  build/py/scope.o
                                                  build/py/parse.o
                                                  build/py/mpz.o
                                                  build/py/mpprint.o
                                                  build/py/qstr.o
                                                  build/py/gc.o
_start                                            ../../../obj/lib/entry.o
abort_                                            build/shared/libc/abort_.o
binaryname                                        ../../../obj/lib/libjos.a(libmain.o)
                                                  ../../../obj/lib/libjos.a(panic.o)
close                                             ../../../obj/lib/libjos.a(fd.o)
                                                  ../../../obj/lib/libjos.a(spawn.o)
                                                  build/modio.o
close_all                                         ../../../obj/lib/libjos.a(fd.o)
                                                  ../../../obj/lib/libjos.a(exit.o)
cprintf                                           ../../../obj/lib/libjos.a(printf.o)
                                                  ../../../obj/lib/libjos.a(spawn.o)
                                                  ../../../obj/lib/libjos.a(fd.o)
                                                  ../../../obj/lib/libjos.a(readline.o)
                                                  ../../../obj/lib/libjos.a(panic.o)
                                                  build/main.o
cputchar                                          ../../../obj/lib/libjos.a(console.o)
                                                  ../../../obj/lib/libjos.a(readline.o)
dev_lookup                                        ../../../obj/lib/libjos.a(fd.o)
devcons                                           ../../../obj/lib/libjos.a(console.o)
                                                  ../../../obj/lib/libjos.a(fd.o)
devfile                                           ../../../obj/lib/libjos.a(file.o)
                                                  ../../../obj/lib/libjos.a(fd.o)
devpipe                                           ../../../obj/lib/libjos.a(pipe.o)
                                                  ../../../obj/lib/libjos.a(fd.o)
dup2                                              ../../../obj/lib/libjos.a(fd.o)
emit_bc_free                                      build/py/emitbc.o
                                                  build/py/compile.o
emit_bc_new                                       build/py/emitbc.o
                                                  build/py/compile.o
emit_bc_set_max_num_labels                        build/py/emitbc.o
                                                  build/py/compile.o
envs                                              ../../../obj/lib/entry.o
                                                  ../../../obj/lib/libjos.a(ipc.o)
                                                  ../../../obj/lib/libjos.a(wait.o)
                                                  ../../../obj/lib/libjos.a(spawn.o)
                                                  ../../../obj/lib/libjos.a(libmain.o)
exit                                              ../../../obj/lib/libjos.a(exit.o)
                                                  ../../../obj/lib/libjos.a(libmain.o)
                                                  build/main.o
fd2data                                           ../../../obj/lib/libjos.a(fd.o)
                                                  ../../../obj/lib/libjos.a(pipe.o)
fd2num                                            ../../../obj/lib/libjos.a(fd.o)
                                                  ../../../obj/lib/libjos.a(console.o)
                                                  ../../../obj/lib/libjos.a(pipe.o)
                                                  ../../../obj/lib/libjos.a(file.o)
fd_alloc                                          ../../../obj/lib/libjos.a(fd.o)
                                                  ../../../obj/lib/libjos.a(console.o)
                                                  ../../../obj/lib/libjos.a(pipe.o)
                                                  ../../../obj/lib/libjos.a(file.o)
fd_close                                          ../../../obj/lib/libjos.a(fd.o)
                                                  ../../../obj/lib/libjos.a(file.o)
fd_lookup                                         ../../../obj/lib/libjos.a(fd.o)
                                                  ../../../obj/lib/libjos.a(console.o)
                                                  ../../../obj/lib/libjos.a(pipe.o)
fdprintf                                          ../../../obj/lib/libjos.a(fprintf.o)
                                                  ../../../obj/lib/libjos.a(readline.o)
fdtruncate                                        ../../../obj/lib/libjos.a(fd.o)
find_subbytes                                     build/py/objstr.o
foreach_shared_region                             ../../../obj/lib/libjos.a(uvpt.o)
                                                  ../../../obj/lib/libjos.a(spawn.o)
fsipcbuf                                          ../../../obj/lib/libjos.a(file.o)
fstat                                             ../../../obj/lib/libjos.a(fd.o)
gc_alloc                                          build/py/gc.o
                                                  build/py/malloc.o
gc_collect                                        build/gccollect.o
                                                  build/py/gc.o
gc_collect_end                                    build/py/gc.o
                                                  build/gccollect.o
gc_collect_root                                   build/py/gc.o
                                                  build/shared/runtime/gchelper_generic.o
gc_collect_start                                  build/py/gc.o
                                                  build/gccollect.o
gc_dump_alloc_table                               build/py/gc.o
gc_dump_info                                      build/py/gc.o
gc_free                                           build/py/gc.o
                                                  build/py/malloc.o
gc_helper_collect_regs_and_stack                  build/shared/runtime/gchelper_generic.o
                                                  build/gccollect.o
gc_info                                           build/py/gc.o
gc_init                                           build/py/gc.o
                                                  build/main.o
gc_is_locked                                      build/py/gc.o
                                                  build/py/runtime.o
gc_lock                                           build/py/gc.o
gc_nbytes                                         build/py/gc.o
                                                  build/py/qstr.o
gc_realloc                                        build/py/gc.o
                                                  build/py/malloc.o
gc_sweep_all                                      build/py/gc.o
gc_unlock                                         build/py/gc.o
get_phys_addr                                     ../../../obj/lib/libjos.a(uvpt.o)
get_prot                                          ../../../obj/lib/libjos.a(uvpt.o)
                                                  ../../../obj/lib/libjos.a(spawn.o)
                                                  ../../../obj/lib/libjos.a(fd.o)
get_uvpt_entry                                    ../../../obj/lib/libjos.a(uvpt.o)
getchar                                           ../../../obj/lib/libjos.a(console.o)
                                                  ../../../obj/lib/libjos.a(readline.o)
heap_size                                         build/main.o
ipc_find_env                                      ../../../obj/lib/libjos.a(ipc.o)
                                                  ../../../obj/lib/libjos.a(file.o)
ipc_recv                                          ../../../obj/lib/libjos.a(ipc.o)
                                                  ../../../obj/lib/libjos.a(file.o)
ipc_send                                          ../../../obj/lib/libjos.a(ipc.o)
                                                  ../../../obj/lib/libjos.a(file.o)
is_page_dirty                                     ../../../obj/lib/libjos.a(uvpt.o)
is_page_present                                   ../../../obj/lib/libjos.a(uvpt.o)
iscons                                            ../../../obj/lib/libjos.a(console.o)
                                                  ../../../obj/lib/libjos.a(readline.o)
libmain                                           ../../../obj/lib/libjos.a(libmain.o)
                                                  ../../../obj/lib/entry.o
m_free                                            build/py/malloc.o
                                                  build/modio.o
                                                  build/py/objtype.o
                                                  build/py/objtuple.o
                                                  build/py/objmap.o
                                                  build/py/objint.o
                                                  build/py/objfun.o
                                                  build/py/objclosure.o
                                                  build/py/objboundmeth.o
                                                  build/py/map.o
                                                  build/py/runtime.o
                                                  build/py/persistentcode.o
                                                  build/py/emitbc.o
                                                  build/py/scope.o
                                                  build/py/parse.o
                                                  build/py/lexer.o
                                                  build/py/reader.o
                                                  build/py/mpz.o
                                                  build/py/mpprint.o
                                                  build/py/vstr.o
m_get_current_bytes_allocated                     build/py/malloc.o
m_get_peak_bytes_allocated                        build/py/malloc.o
m_get_total_bytes_allocated                       build/py/malloc.o
m_malloc                                          build/py/malloc.o
                                                  build/modio.o
                                                  build/py/objtype.o
                                                  build/py/objtuple.o
                                                  build/py/objstr.o
                                                  build/py/objmodule.o
                                                  build/py/objmap.o
                                                  build/py/objlist.o
                                                  build/py/objint_mpz.o
                                                  build/py/objint.o
                                                  build/py/objdict.o
                                                  build/py/objclosure.o
                                                  build/py/obj.o
                                                  build/py/runtime.o
                                                  build/py/persistentcode.o
                                                  build/py/emitbc.o
                                                  build/py/compile.o
                                                  build/py/scope.o
                                                  build/py/parse.o
                                                  build/py/lexer.o
                                                  build/py/reader.o
                                                  build/py/mpz.o
                                                  build/py/vstr.o
m_malloc0                                         build/py/malloc.o
                                                  build/py/objtype.o
                                                  build/py/map.o
                                                  build/py/emitglue.o
                                                  build/py/emitbc.o
                                                  build/py/compile.o
                                                  build/py/scope.o
m_malloc_fail                                     build/py/runtime.o
                                                  build/py/qstr.o
                                                  build/py/malloc.o
m_malloc_maybe                                    build/py/malloc.o
                                                  build/py/objfun.o
                                                  build/py/objexcept.o
                                                  build/py/objboundmeth.o
                                                  build/py/qstr.o
m_realloc                                         build/py/malloc.o
                                                  build/py/objtuple.o
                                                  build/py/objstr.o
                                                  build/py/objlist.o
                                                  build/py/runtime.o
                                                  build/py/scope.o
                                                  build/py/parse.o
                                                  build/py/lexer.o
                                                  build/py/mpz.o
                                                  build/py/vstr.o
m_realloc_maybe                                   build/py/malloc.o
                                                  build/py/objexcept.o
                                                  build/py/parse.o
                                                  build/py/qstr.o
machine_mem16_obj                                 build/extmod/machine_mem.o
                                                  build/extmod/modmachine.o
machine_mem32_obj                                 build/extmod/machine_mem.o
                                                  build/extmod/modmachine.o
machine_mem8_obj                                  build/extmod/machine_mem.o
                                                  build/extmod/modmachine.o
machine_mem_type                                  build/extmod/machine_mem.o
machine_pinbase_type                              build/extmod/machine_pinbase.o
                                                  build/extmod/modmachine.o
machine_signal_type                               build/extmod/machine_signal.o
                                                  build/extmod/modmachine.o
machine_time_pulse_us                             build/extmod/machine_pulse.o
machine_time_pulse_us_obj                         build/extmod/machine_pulse.o
                                                  build/extmod/modmachine.o
main_                                             build/main.o
memcmp                                            ../../../obj/lib/libjos.a(string.o)
                                                  build/py/repl.o
                                                  build/py/sequence.o
                                                  build/py/objstr.o
                                                  build/py/qstr.o
memcpy                                            ../../../obj/lib/libjos.a(string.o)
                                                  ../../../obj/lib/libjos.a(file.o)
                                                  build/py/builtinimport.o
                                                  build/py/binary.o
                                                  build/py/sequence.o
                                                  build/py/objtype.o
                                                  build/py/objtuple.o
                                                  build/py/objstr.o
                                                  build/py/objlist.o
                                                  build/py/objfun.o
                                                  build/py/objexcept.o
                                                  build/py/objdict.o
                                                  build/py/objclosure.o
                                                  build/py/objboundmeth.o
                                                  build/py/ringbuf.o
                                                  build/py/runtime.o
                                                  build/py/compile.o
                                                  build/py/mpz.o
                                                  build/py/qstr.o
                                                  build/py/gc.o
memfind                                           ../../../obj/lib/libjos.a(string.o)
memmove                                           ../../../obj/lib/libjos.a(string.o)
                                                  ../../../obj/lib/libjos.a(console.o)
                                                  build/py/objstr.o
                                                  build/py/objlist.o
                                                  build/py/vstr.o
memset                                            ../../../obj/lib/libjos.a(string.o)
                                                  build/extmod/modtime.o
                                                  build/py/bc.o
                                                  build/py/objstr.o
                                                  build/py/objlist.o
                                                  build/py/objint.o
                                                  build/py/mpz.o
                                                  build/py/gc.o
mod_machine_mem_get_addr                          build/extmod/modmachine.o
                                                  build/extmod/machine_mem.o
mod_time_mktime_obj                               build/extmod/modtime.o
mp_arg_check_num_sig                              build/py/argcheck.o
                                                  build/extmod/machine_signal.o
                                                  build/py/objzip.o
                                                  build/py/objtype.o
                                                  build/py/objtuple.o
                                                  build/py/objstr.o
                                                  build/py/objrange.o
                                                  build/py/objobject.o
                                                  build/py/objmap.o
                                                  build/py/objlist.o
                                                  build/py/objint.o
                                                  build/py/objfun.o
                                                  build/py/objexcept.o
                                                  build/py/objdict.o
                                                  build/py/objbool.o
mp_arg_error_terse_mismatch                       build/py/argcheck.o
mp_arg_parse_all                                  build/py/argcheck.o
                                                  build/py/modbuiltins.o
                                                  build/py/objlist.o
mp_arg_parse_all_kw_array                         build/py/argcheck.o
mp_binary_get_int                                 build/py/binary.o
mp_binary_get_size                                build/py/binary.o
mp_binary_get_val                                 build/py/binary.o
mp_binary_get_val_array                           build/py/binary.o
mp_binary_op                                      build/py/runtime.o
                                                  build/py/vm.o
                                                  build/py/modbuiltins.o
                                                  build/py/sequence.o
                                                  build/py/objtype.o
                                                  build/py/objlist.o
                                                  build/py/objint.o
                                                  build/py/objbool.o
                                                  build/py/parse.o
mp_binary_op_method_name                          build/py/objtype.o
                                                  build/py/runtime.o
mp_binary_set_int                                 build/py/binary.o
                                                  build/py/objint.o
mp_binary_set_val                                 build/py/binary.o
mp_binary_set_val_array                           build/py/binary.o
mp_binary_set_val_array_from_int                  build/py/binary.o
mp_builtin___build_class___obj                    build/py/modbuiltins.o
                                                  build/py/runtime.o
mp_builtin___import___default                     build/py/builtinimport.o
                                                  build/py/runtime.o
mp_builtin___import___obj                         build/py/builtinimport.o
                                                  build/py/modbuiltins.o
mp_builtin___repl_print___obj                     build/py/modbuiltins.o
mp_builtin_abs_obj                                build/py/modbuiltins.o
mp_builtin_all_obj                                build/py/modbuiltins.o
mp_builtin_any_obj                                build/py/modbuiltins.o
mp_builtin_bin_obj                                build/py/modbuiltins.o
mp_builtin_callable_obj                           build/py/modbuiltins.o
mp_builtin_chr_obj                                build/py/modbuiltins.o
mp_builtin_dir_obj                                build/py/modbuiltins.o
mp_builtin_divmod_obj                             build/py/modbuiltins.o
mp_builtin_eval_obj                               build/py/builtinevex.o
                                                  build/py/modbuiltins.o
mp_builtin_exec_obj                               build/py/builtinevex.o
                                                  build/py/modbuiltins.o
mp_builtin_extensible_module_map                  build/py/objmodule.o
                                                  build/py/repl.o
mp_builtin_getattr_obj                            build/py/modbuiltins.o
mp_builtin_globals_obj                            build/py/modbuiltins.o
mp_builtin_hasattr_obj                            build/py/modbuiltins.o
mp_builtin_hash_obj                               build/py/modbuiltins.o
mp_builtin_hex_obj                                build/py/modbuiltins.o
mp_builtin_id_obj                                 build/py/modbuiltins.o
mp_builtin_isinstance_obj                         build/py/objtype.o
                                                  build/py/modbuiltins.o
mp_builtin_issubclass_obj                         build/py/objtype.o
                                                  build/py/modbuiltins.o
mp_builtin_iter_obj                               build/py/modbuiltins.o
mp_builtin_len_obj                                build/py/modbuiltins.o
mp_builtin_locals_obj                             build/py/modbuiltins.o
mp_builtin_module_map                             build/py/objmodule.o
                                                  build/py/repl.o
mp_builtin_next_obj                               build/py/modbuiltins.o
                                                  build/py/runtime.o
mp_builtin_oct_obj                                build/py/modbuiltins.o
mp_builtin_ord_obj                                build/py/modbuiltins.o
mp_builtin_pow_obj                                build/py/modbuiltins.o
mp_builtin_print_obj                              build/py/modbuiltins.o
mp_builtin_repr_obj                               build/py/modbuiltins.o
mp_builtin_round_obj                              build/py/modbuiltins.o
mp_builtin_setattr_obj                            build/py/modbuiltins.o
mp_builtin_sorted_obj                             build/py/modbuiltins.o
mp_builtin_sum_obj                                build/py/modbuiltins.o
mp_call_function_0                                build/py/runtime.o
                                                  build/main.o
                                                  build/py/modbuiltins.o
mp_call_function_1                                build/py/runtime.o
                                                  build/py/objtype.o
                                                  build/py/objmodule.o
                                                  build/py/objlist.o
                                                  build/py/runtime_utils.o
mp_call_function_1_from_nlr_jump_callback         build/py/runtime.o
                                                  build/py/persistentcode.o
                                                  build/py/parse.o
mp_call_function_1_protected                      build/py/runtime_utils.o
mp_call_function_2                                build/py/runtime.o
                                                  build/py/runtime_utils.o
mp_call_function_2_protected                      build/py/runtime_utils.o
mp_call_function_n_kw                             build/py/runtime.o
                                                  build/py/vm.o
                                                  build/py/modbuiltins.o
                                                  build/py/objtype.o
                                                  build/py/objmap.o
                                                  build/py/objclosure.o
                                                  build/py/objboundmeth.o
mp_call_method_n_kw                               build/py/runtime.o
                                                  build/extmod/machine_pinbase.o
                                                  build/py/vm.o
                                                  build/py/objtype.o
                                                  build/py/objgetitemiter.o
mp_call_method_n_kw_var                           build/py/runtime.o
                                                  build/py/vm.o
mp_call_method_self_n_kw                          build/py/objboundmeth.o
                                                  build/py/objtype.o
mp_compile                                        build/py/compile.o
                                                  build/main.o
                                                  build/py/runtime.o
mp_const_GeneratorExit_obj                        build/py/objgenerator.o
                                                  build/py/vm.o
mp_const_ellipsis_obj                             build/py/objsingleton.o
                                                  build/py/modbuiltins.o
                                                  build/py/persistentcode.o
                                                  build/py/emitbc.o
                                                  build/py/parse.o
mp_const_empty_bytes_obj                          build/py/objstr.o
                                                  build/py/persistentcode.o
mp_const_empty_dict_obj                           build/py/objdict.o
mp_const_empty_tuple_obj                          build/py/objtuple.o
                                                  build/py/bc.o
                                                  build/py/objgenerator.o
                                                  build/py/objexcept.o
                                                  build/py/runtime.o
                                                  build/py/parse.o
mp_convert_member_lookup                          build/py/runtime.o
                                                  build/py/objtype.o
mp_decode_uint                                    build/py/bc.o
mp_decode_uint_skip                               build/py/bc.o
                                                  build/py/vm.o
mp_decode_uint_value                              build/py/bc.o
                                                  build/py/vm.o
                                                  build/py/objfun.o
mp_deinit                                         build/py/runtime.o
                                                  build/main.o
mp_delete_global                                  build/py/runtime.o
                                                  build/py/vm.o
mp_delete_name                                    build/py/runtime.o
                                                  build/py/vm.o
mp_emit_bc_adjust_stack_size                      build/py/emitbc.o
                                                  build/py/compile.o
mp_emit_bc_async_with_setup_finally               build/py/emitbc.o
                                                  build/py/compile.o
mp_emit_bc_attr                                   build/py/emitbc.o
                                                  build/py/compile.o
mp_emit_bc_binary_op                              build/py/emitbc.o
                                                  build/py/compile.o
mp_emit_bc_build                                  build/py/emitbc.o
                                                  build/py/compile.o
mp_emit_bc_call_function                          build/py/emitbc.o
                                                  build/py/compile.o
mp_emit_bc_call_method                            build/py/emitbc.o
                                                  build/py/compile.o
mp_emit_bc_delete_global                          build/py/emitbc.o
mp_emit_bc_delete_local                           build/py/emitbc.o
mp_emit_bc_dup_top                                build/py/emitbc.o
                                                  build/py/compile.o
mp_emit_bc_dup_top_two                            build/py/emitbc.o
                                                  build/py/compile.o
mp_emit_bc_end_except_handler                     build/py/emitbc.o
                                                  build/py/compile.o
mp_emit_bc_end_finally                            build/py/emitbc.o
                                                  build/py/compile.o
mp_emit_bc_end_pass                               build/py/emitbc.o
                                                  build/py/compile.o
mp_emit_bc_for_iter                               build/py/emitbc.o
                                                  build/py/compile.o
mp_emit_bc_for_iter_end                           build/py/emitbc.o
                                                  build/py/compile.o
mp_emit_bc_get_iter                               build/py/emitbc.o
                                                  build/py/compile.o
mp_emit_bc_import                                 build/py/emitbc.o
                                                  build/py/compile.o
mp_emit_bc_jump                                   build/py/emitbc.o
                                                  build/py/compile.o
mp_emit_bc_jump_if_or_pop                         build/py/emitbc.o
                                                  build/py/compile.o
mp_emit_bc_label_assign                           build/py/emitbc.o
                                                  build/py/compile.o
mp_emit_bc_load_build_class                       build/py/emitbc.o
                                                  build/py/compile.o
mp_emit_bc_load_const_obj                         build/py/emitbc.o
                                                  build/py/compile.o
mp_emit_bc_load_const_small_int                   build/py/emitbc.o
                                                  build/py/compile.o
mp_emit_bc_load_const_str                         build/py/emitbc.o
                                                  build/py/compile.o
mp_emit_bc_load_const_tok                         build/py/emitbc.o
                                                  build/py/compile.o
mp_emit_bc_load_global                            build/py/emitbc.o
                                                  build/py/compile.o
mp_emit_bc_load_local                             build/py/emitbc.o
                                                  build/py/compile.o
mp_emit_bc_load_method                            build/py/emitbc.o
                                                  build/py/compile.o
mp_emit_bc_load_null                              build/py/emitbc.o
                                                  build/py/compile.o
mp_emit_bc_make_closure                           build/py/emitbc.o
                                                  build/py/compile.o
mp_emit_bc_make_function                          build/py/emitbc.o
                                                  build/py/compile.o
mp_emit_bc_method_table_delete_id_ops             build/py/emitbc.o
                                                  build/py/compile.o
mp_emit_bc_method_table_load_id_ops               build/py/emitbc.o
                                                  build/py/compile.o
mp_emit_bc_method_table_store_id_ops              build/py/emitbc.o
                                                  build/py/compile.o
mp_emit_bc_pop_except_jump                        build/py/emitbc.o
                                                  build/py/compile.o
mp_emit_bc_pop_jump_if                            build/py/emitbc.o
                                                  build/py/compile.o
mp_emit_bc_pop_top                                build/py/emitbc.o
                                                  build/py/compile.o
mp_emit_bc_raise_varargs                          build/py/emitbc.o
                                                  build/py/compile.o
mp_emit_bc_return_value                           build/py/emitbc.o
                                                  build/py/compile.o
mp_emit_bc_rot_three                              build/py/emitbc.o
                                                  build/py/compile.o
mp_emit_bc_rot_two                                build/py/emitbc.o
                                                  build/py/compile.o
mp_emit_bc_set_source_line                        build/py/emitbc.o
                                                  build/py/compile.o
mp_emit_bc_setup_block                            build/py/emitbc.o
                                                  build/py/compile.o
mp_emit_bc_start_except_handler                   build/py/emitbc.o
                                                  build/py/compile.o
mp_emit_bc_start_pass                             build/py/emitbc.o
                                                  build/py/compile.o
mp_emit_bc_store_comp                             build/py/emitbc.o
                                                  build/py/compile.o
mp_emit_bc_store_global                           build/py/emitbc.o
mp_emit_bc_store_local                            build/py/emitbc.o
mp_emit_bc_store_map                              build/py/emitbc.o
                                                  build/py/compile.o
mp_emit_bc_subscr                                 build/py/emitbc.o
                                                  build/py/compile.o
mp_emit_bc_unary_op                               build/py/emitbc.o
                                                  build/py/compile.o
mp_emit_bc_unpack_ex                              build/py/emitbc.o
                                                  build/py/compile.o
mp_emit_bc_unpack_sequence                        build/py/emitbc.o
                                                  build/py/compile.o
mp_emit_bc_unwind_jump                            build/py/emitbc.o
                                                  build/py/compile.o
mp_emit_bc_with_cleanup                           build/py/emitbc.o
                                                  build/py/compile.o
mp_emit_bc_yield                                  build/py/emitbc.o
                                                  build/py/compile.o
mp_emit_common_get_id_for_modification            build/py/emitcommon.o
                                                  build/py/compile.o
mp_emit_common_id_op                              build/py/emitcommon.o
                                                  build/py/compile.o
mp_emit_common_use_const_obj                      build/py/emitcommon.o
                                                  build/py/emitbc.o
mp_emit_common_use_qstr                           build/py/emitcommon.o
                                                  build/py/emitbc.o
mp_emit_glue_assign_bytecode                      build/py/emitglue.o
                                                  build/py/persistentcode.o
                                                  build/py/emitbc.o
mp_emit_glue_new_raw_code                         build/py/emitglue.o
                                                  build/py/persistentcode.o
                                                  build/py/scope.o
mp_emitter_warning                                build/py/warning.o
mp_encode_uint                                    build/py/bc.o
                                                  build/py/emitbc.o
mp_event_handle_nowait                            build/py/scheduler.o
mp_event_wait_indefinite                          build/py/scheduler.o
mp_event_wait_ms                                  build/py/scheduler.o
                                                  build/mphalport.o
mp_execute_bytecode                               build/py/vm.o
                                                  build/py/objgenerator.o
                                                  build/py/objfun.o
mp_get_buffer                                     build/py/obj.o
                                                  build/py/builtinevex.o
                                                  build/py/stream.o
                                                  build/py/objstr.o
                                                  build/py/objint.o
mp_get_index                                      build/py/obj.o
                                                  build/py/sequence.o
                                                  build/py/objtuple.o
                                                  build/py/objstr.o
                                                  build/py/objrange.o
                                                  build/py/objlist.o
mp_get_stream_raise                               build/py/stream.o
mp_getiter                                        build/py/runtime.o
                                                  build/py/vm.o
                                                  build/py/modbuiltins.o
                                                  build/py/objzip.o
                                                  build/py/objtuple.o
                                                  build/py/objstr.o
                                                  build/py/objmap.o
                                                  build/py/objlist.o
                                                  build/py/objdict.o
mp_globals_locals_set_from_nlr_jump_callback      build/py/runtime.o
mp_hal_delay_ms                                   build/mphalport.o
                                                  build/extmod/modtime.o
mp_hal_get_random                                 build/mphalport.o
                                                  build/extmod/modos.o
mp_hal_set_interrupt_char                         build/main.o
mp_hal_stdin_rx_chr                               build/mphalport.o
mp_hal_stdout_tx_str                              build/mphalport.o
mp_hal_stdout_tx_strn                             build/mphalport.o
mp_hal_stdout_tx_strn_cooked                      build/mphalport.o
                                                  build/py/mpprint.o
mp_hal_ticks_ms                                   build/mphalport.o
                                                  build/extmod/modtime.o
mp_hal_ticks_us                                   build/mphalport.o
                                                  build/extmod/modtime.o
                                                  build/extmod/machine_pulse.o
mp_hal_time_ns                                    build/mphalport.o
                                                  build/extmod/modtime.o
mp_handle_pending                                 build/py/scheduler.o
                                                  build/main.o
                                                  build/extmod/modtime.o
                                                  build/py/vm.o
mp_identity                                       build/py/obj.o
mp_identity_obj                                   build/py/obj.o
mp_import_all                                     build/py/runtime.o
                                                  build/py/vm.o
mp_import_from                                    build/py/runtime.o
                                                  build/py/vm.o
mp_import_name                                    build/py/runtime.o
                                                  build/py/vm.o
mp_import_stat                                    build/modio.o
                                                  build/py/builtinimport.o
mp_init                                           build/py/runtime.o
                                                  build/main.o
mp_init_emergency_exception_buf                   build/py/objexcept.o
                                                  build/py/runtime.o
mp_int_format_size                                build/py/objint.o
                                                  build/py/objint_mpz.o
mp_iternext                                       build/py/runtime.o
                                                  build/py/modbuiltins.o
                                                  build/py/objzip.o
                                                  build/py/objtuple.o
                                                  build/py/objstr.o
                                                  build/py/objmap.o
                                                  build/py/objlist.o
                                                  build/py/objdict.o
mp_iternext_allow_raise                           build/py/runtime.o
                                                  build/py/vm.o
                                                  build/py/modbuiltins.o
mp_lexer_free                                     build/py/lexer.o
                                                  build/py/parse.o
mp_lexer_new                                      build/py/lexer.o
                                                  build/lexer.o
mp_lexer_new_from_fd                              build/lexer.o
                                                  build/main.o
mp_lexer_new_from_file                            build/lexer.o
                                                  build/main.o
                                                  build/py/builtinimport.o
mp_lexer_new_from_str_len                         build/py/lexer.o
                                                  build/main.o
                                                  build/py/builtinevex.o
mp_lexer_to_next                                  build/py/lexer.o
                                                  build/py/parse.o
mp_load_attr                                      build/py/runtime.o
                                                  build/py/vm.o
mp_load_build_class                               build/py/runtime.o
                                                  build/py/vm.o
mp_load_global                                    build/py/runtime.o
                                                  build/py/vm.o
mp_load_method                                    build/py/runtime.o
                                                  build/extmod/machine_pinbase.o
                                                  build/py/vm.o
                                                  build/py/modbuiltins.o
                                                  build/py/objtype.o
mp_load_method_maybe                              build/py/runtime.o
                                                  build/py/builtinimport.o
                                                  build/py/objtype.o
mp_load_method_protected                          build/py/runtime.o
                                                  build/py/repl.o
                                                  build/py/modbuiltins.o
mp_load_name                                      build/py/runtime.o
                                                  build/py/vm.o
mp_load_super_method                              build/py/objtype.o
                                                  build/py/vm.o
mp_make_closure_from_proto_fun                    build/py/emitglue.o
                                                  build/py/vm.o
mp_make_function_from_proto_fun                   build/py/emitglue.o
                                                  build/py/vm.o
                                                  build/py/compile.o
mp_make_raise_obj                                 build/py/runtime.o
                                                  build/py/vm.o
mp_map_clear                                      build/py/map.o
                                                  build/py/objdict.o
mp_map_deinit                                     build/py/map.o
mp_map_init                                       build/py/map.o
                                                  build/py/objtype.o
                                                  build/py/objdict.o
                                                  build/py/compile.o
mp_map_init_fixed_table                           build/py/map.o
                                                  build/py/objfun.o
                                                  build/py/objdict.o
                                                  build/py/argcheck.o
mp_map_lookup                                     build/py/map.o
                                                  build/py/repl.o
                                                  build/py/bc.o
                                                  build/py/builtinimport.o
                                                  build/py/objtype.o
                                                  build/py/objstr.o
                                                  build/py/objmodule.o
                                                  build/py/objdict.o
                                                  build/py/argcheck.o
                                                  build/py/runtime.o
                                                  build/py/emitcommon.o
                                                  build/py/compile.o
mp_module___main__                                build/py/runtime.o
                                                  build/py/repl.o
                                                  build/py/objmodule.o
mp_module_builtins                                build/py/modbuiltins.o
                                                  build/py/objmodule.o
mp_module_builtins_globals                        build/py/modbuiltins.o
                                                  build/py/runtime.o
mp_module_generic_attr                            build/py/objmodule.o
                                                  build/py/modsys.o
mp_module_get_builtin                             build/py/objmodule.o
                                                  build/py/builtinimport.o
mp_module_machine                                 build/extmod/modmachine.o
                                                  build/py/objmodule.o
mp_module_os                                      build/extmod/modos.o
                                                  build/py/objmodule.o
mp_module_sys                                     build/py/modsys.o
                                                  build/py/objmodule.o
mp_module_sys_attr                                build/py/modsys.o
                                                  build/py/objmodule.o
mp_module_time                                    build/extmod/modtime.o
                                                  build/py/objmodule.o
mp_obj_cast_to_native_base                        build/py/objtype.o
                                                  build/py/objtuple.o
mp_obj_dict_copy                                  build/py/objdict.o
mp_obj_dict_delete                                build/py/objdict.o
                                                  build/py/objmodule.o
                                                  build/py/runtime.o
mp_obj_dict_get                                   build/py/objdict.o
                                                  build/py/builtinimport.o
mp_obj_dict_init                                  build/py/objdict.o
                                                  build/py/runtime.o
mp_obj_dict_len                                   build/py/objdict.o
                                                  build/py/runtime.o
mp_obj_dict_make_new                              build/py/objdict.o
mp_obj_dict_store                                 build/py/objdict.o
                                                  build/py/vm.o
                                                  build/py/builtinimport.o
                                                  build/py/objmodule.o
                                                  build/py/runtime.o
mp_obj_equal                                      build/py/obj.o
                                                  build/py/sequence.o
                                                  build/py/objdict.o
                                                  build/py/map.o
                                                  build/py/runtime.o
                                                  build/py/emitcommon.o
mp_obj_equal_not_equal                            build/py/obj.o
                                                  build/py/runtime.o
mp_obj_exception_add_traceback                    build/py/objexcept.o
                                                  build/py/vm.o
                                                  build/py/parsenum.o
                                                  build/py/compile.o
                                                  build/py/parse.o
mp_obj_exception_attr                             build/py/objexcept.o
mp_obj_exception_clear_traceback                  build/py/objexcept.o
mp_obj_exception_get_traceback                    build/py/objexcept.o
                                                  build/py/obj.o
mp_obj_exception_get_value                        build/py/objexcept.o
                                                  build/main.o
                                                  build/py/vm.o
                                                  build/py/runtime.o
mp_obj_exception_make_new                         build/py/objexcept.o
                                                  build/py/runtime.o
                                                  build/py/parsenum.o
mp_obj_exception_match                            build/py/objexcept.o
                                                  build/py/vm.o
                                                  build/py/runtime.o
mp_obj_exception_print                            build/py/objexcept.o
mp_obj_fun_get_name                               build/py/objfun.o
                                                  build/py/bc.o
                                                  build/py/objgenerator.o
mp_obj_gen_resume                                 build/py/objgenerator.o
                                                  build/py/runtime.o
mp_obj_get_array                                  build/py/obj.o
                                                  build/extmod/modtime.o
                                                  build/py/builtinimport.o
                                                  build/py/objstr.o
                                                  build/py/runtime.o
mp_obj_get_array_fixed_n                          build/py/obj.o
mp_obj_get_int                                    build/py/obj.o
                                                  build/extmod/modtime.o
                                                  build/extmod/modos.o
                                                  build/extmod/machine_pulse.o
                                                  build/extmod/machine_pinbase.o
                                                  build/py/modbuiltins.o
                                                  build/py/binary.o
                                                  build/py/stream.o
                                                  build/py/objstr.o
                                                  build/py/objrange.o
                                                  build/py/objint.o
                                                  build/py/argcheck.o
                                                  build/py/runtime.o
                                                  build/py/mpprint.o
mp_obj_get_int_maybe                              build/py/obj.o
                                                  build/main.o
                                                  build/py/objtuple.o
                                                  build/py/objstr.o
                                                  build/py/objlist.o
mp_obj_get_int_truncated                          build/py/obj.o
                                                  build/extmod/modmachine.o
                                                  build/extmod/machine_mem.o
                                                  build/py/stream.o
                                                  build/py/objtype.o
mp_obj_get_type                                   build/py/obj.o
                                                  build/py/vm.o
                                                  build/py/modsys.o
                                                  build/py/modbuiltins.o
                                                  build/py/stream.o
                                                  build/py/sequence.o
                                                  build/py/opmethods.o
                                                  build/py/objtype.o
                                                  build/py/objtuple.o
                                                  build/py/objstr.o
                                                  build/py/objgenerator.o
                                                  build/py/objexcept.o
                                                  build/py/runtime.o
                                                  build/py/emitcommon.o
mp_obj_get_type_str                               build/py/obj.o
                                                  build/py/objtype.o
                                                  build/py/objstr.o
                                                  build/py/runtime.o
mp_obj_id                                         build/py/obj.o
                                                  build/py/modbuiltins.o
mp_obj_instance_call                              build/py/objtype.o
                                                  build/py/obj.o
mp_obj_instance_getiter                           build/py/objtype.o
                                                  build/py/runtime.o
mp_obj_instance_is_callable                       build/py/objtype.o
                                                  build/py/obj.o
mp_obj_int_binary_op                              build/py/objint_mpz.o
                                                  build/py/objint.o
mp_obj_int_binary_op_extra_cases                  build/py/objint.o
                                                  build/py/objint_mpz.o
mp_obj_int_formatted                              build/py/objint.o
                                                  build/py/mpprint.o
mp_obj_int_formatted_impl                         build/py/objint_mpz.o
                                                  build/py/objint.o
mp_obj_int_from_bytes_impl                        build/py/objint_mpz.o
                                                  build/py/objint.o
mp_obj_int_get_checked                            build/py/objint_mpz.o
                                                  build/py/obj.o
mp_obj_int_get_truncated                          build/py/objint_mpz.o
                                                  build/py/obj.o
mp_obj_int_get_uint_checked                       build/py/objint_mpz.o
mp_obj_int_new_mpz                                build/py/objint_mpz.o
mp_obj_int_print                                  build/py/objint.o
mp_obj_int_sign                                   build/py/objint_mpz.o
                                                  build/py/parse.o
                                                  build/py/mpprint.o
mp_obj_int_to_bytes_impl                          build/py/objint_mpz.o
                                                  build/py/binary.o
                                                  build/py/objint.o
mp_obj_int_unary_op                               build/py/objint_mpz.o
                                                  build/py/objint.o
mp_obj_is_callable                                build/py/obj.o
                                                  build/main.o
                                                  build/py/modbuiltins.o
mp_obj_is_dict_or_ordereddict                     build/py/objdict.o
                                                  build/py/objtype.o
mp_obj_is_exception_instance                      build/py/objexcept.o
                                                  build/py/vm.o
                                                  build/py/obj.o
                                                  build/py/runtime.o
mp_obj_is_exception_type                          build/py/objexcept.o
                                                  build/py/runtime.o
mp_obj_is_native_exception_instance               build/py/objexcept.o
                                                  build/py/objtype.o
mp_obj_is_subclass_fast                           build/py/objtype.o
                                                  build/main.o
                                                  build/py/vm.o
                                                  build/py/objtuple.o
                                                  build/py/objgenerator.o
                                                  build/py/objexcept.o
                                                  build/py/runtime.o
mp_obj_is_true                                    build/py/obj.o
                                                  build/extmod/machine_signal.o
                                                  build/extmod/machine_pulse.o
                                                  build/py/vm.o
                                                  build/py/modbuiltins.o
                                                  build/py/stream.o
                                                  build/py/objtype.o
                                                  build/py/objbool.o
                                                  build/py/argcheck.o
                                                  build/py/runtime.o
                                                  build/py/parse.o
mp_obj_len                                        build/py/obj.o
                                                  build/py/modbuiltins.o
mp_obj_len_maybe                                  build/py/obj.o
                                                  build/py/objstr.o
                                                  build/py/objdict.o
                                                  build/py/runtime.o
mp_obj_list_append                                build/py/objlist.o
                                                  build/main.o
                                                  build/py/vm.o
                                                  build/py/modbuiltins.o
                                                  build/py/stream.o
                                                  build/py/sequence.o
                                                  build/py/objstr.o
                                                  build/py/runtime.o
                                                  build/py/emitcommon.o
mp_obj_list_get                                   build/py/objlist.o
                                                  build/py/obj.o
mp_obj_list_init                                  build/py/objlist.o
                                                  build/main.o
                                                  build/py/compile.o
mp_obj_list_make_new                              build/py/objlist.o
                                                  build/py/modbuiltins.o
                                                  build/py/objstr.o
mp_obj_list_remove                                build/py/objlist.o
mp_obj_list_set_len                               build/py/objlist.o
                                                  build/py/runtime.o
mp_obj_list_sort                                  build/py/objlist.o
                                                  build/py/modbuiltins.o
mp_obj_list_store                                 build/py/objlist.o
                                                  build/main.o
mp_obj_malloc_helper                              build/py/obj.o
                                                  build/extmod/machine_signal.o
                                                  build/py/objzip.o
                                                  build/py/objtype.o
                                                  build/py/objtuple.o
                                                  build/py/objstr.o
                                                  build/py/objrange.o
                                                  build/py/objobject.o
                                                  build/py/objmap.o
                                                  build/py/objint_mpz.o
                                                  build/py/objgenerator.o
                                                  build/py/objfun.o
                                                  build/py/objdict.o
                                                  build/py/objclosure.o
                                                  build/py/objcell.o
                                                  build/py/objboundmeth.o
                                                  build/py/objattrtuple.o
mp_obj_new_attrtuple                              build/py/objattrtuple.o
mp_obj_new_bound_meth                             build/py/objboundmeth.o
                                                  build/py/modbuiltins.o
                                                  build/py/runtime.o
mp_obj_new_bytes                                  build/py/objstr.o
                                                  build/py/parse.o
mp_obj_new_bytes_from_vstr                        build/py/objstr.o
                                                  build/extmod/modos.o
                                                  build/py/stream.o
                                                  build/py/objint.o
                                                  build/py/persistentcode.o
mp_obj_new_cell                                   build/py/objcell.o
                                                  build/py/bc.o
mp_obj_new_closure                                build/py/objclosure.o
                                                  build/py/emitglue.o
mp_obj_new_dict                                   build/py/objdict.o
                                                  build/py/bc.o
                                                  build/py/vm.o
                                                  build/py/modbuiltins.o
                                                  build/py/objmodule.o
mp_obj_new_exception                              build/py/objexcept.o
                                                  build/py/runtime.o
mp_obj_new_exception_args                         build/py/objexcept.o
mp_obj_new_exception_msg                          build/py/objexcept.o
                                                  build/py/vm.o
                                                  build/py/objgenerator.o
                                                  build/py/runtime.o
                                                  build/py/parsenum.o
                                                  build/py/compile.o
                                                  build/py/parse.o
mp_obj_new_exception_msg_varg                     build/py/objexcept.o
mp_obj_new_exception_msg_vlist                    build/py/objexcept.o
                                                  build/py/runtime.o
mp_obj_new_fun_bc                                 build/py/objfun.o
                                                  build/py/emitglue.o
mp_obj_new_getitem_iter                           build/py/objgetitemiter.o
                                                  build/py/runtime.o
mp_obj_new_int                                    build/py/objint_mpz.o
                                                  build/extmod/modtime.o
                                                  build/extmod/machine_pulse.o
                                                  build/extmod/machine_mem.o
                                                  build/py/modbuiltins.o
                                                  build/py/binary.o
                                                  build/py/stream.o
                                                  build/py/objrange.o
                                                  build/py/obj.o
                                                  build/py/runtime.o
mp_obj_new_int_from_ll                            build/py/objint_mpz.o
                                                  build/py/binary.o
                                                  build/py/runtime.o
mp_obj_new_int_from_str_len                       build/py/objint_mpz.o
                                                  build/py/parsenum.o
mp_obj_new_int_from_uint                          build/py/objint_mpz.o
                                                  build/py/binary.o
                                                  build/py/stream.o
                                                  build/py/objint.o
                                                  build/py/obj.o
mp_obj_new_int_from_ull                           build/py/objint_mpz.o
                                                  build/extmod/modtime.o
                                                  build/py/binary.o
mp_obj_new_list                                   build/py/objlist.o
                                                  build/main.o
                                                  build/py/vm.o
                                                  build/py/modbuiltins.o
                                                  build/py/stream.o
                                                  build/py/sequence.o
                                                  build/py/objstr.o
                                                  build/py/runtime.o
mp_obj_new_module                                 build/py/objmodule.o
                                                  build/py/builtinimport.o
mp_obj_new_str                                    build/py/objstr.o
                                                  build/py/builtinimport.o
                                                  build/py/binary.o
mp_obj_new_str_copy                               build/py/objstr.o
                                                  build/py/parse.o
mp_obj_new_str_from_vstr                          build/py/objstr.o
                                                  build/py/modbuiltins.o
                                                  build/py/stream.o
                                                  build/py/runtime.o
                                                  build/py/persistentcode.o
                                                  build/py/parsenum.o
mp_obj_new_str_of_type                            build/py/objstr.o
mp_obj_new_str_via_qstr                           build/py/objstr.o
                                                  build/main.o
                                                  build/py/modbuiltins.o
mp_obj_new_tuple                                  build/py/objtuple.o
                                                  build/extmod/modtime.o
                                                  build/py/bc.o
                                                  build/py/vm.o
                                                  build/py/modsys.o
                                                  build/py/modbuiltins.o
                                                  build/py/objzip.o
                                                  build/py/objint_mpz.o
                                                  build/py/objdict.o
                                                  build/py/runtime.o
                                                  build/py/persistentcode.o
                                                  build/py/parse.o
mp_obj_new_type                                   build/py/objtype.o
mp_obj_print                                      build/py/obj.o
mp_obj_print_exception                            build/py/obj.o
                                                  build/main.o
                                                  build/py/modsys.o
                                                  build/py/runtime_utils.o
mp_obj_print_helper                               build/py/obj.o
                                                  build/py/modbuiltins.o
                                                  build/py/objtype.o
                                                  build/py/objtuple.o
                                                  build/py/objstr.o
                                                  build/py/objlist.o
                                                  build/py/objexcept.o
                                                  build/py/objdict.o
                                                  build/py/objclosure.o
                                                  build/py/objcell.o
                                                  build/py/objboundmeth.o
                                                  build/py/objattrtuple.o
mp_obj_str_binary_op                              build/py/objstr.o
                                                  build/py/objint.o
                                                  build/py/runtime.o
mp_obj_str_equal                                  build/py/objstr.o
                                                  build/py/obj.o
mp_obj_str_format                                 build/py/objstr.o
                                                  build/py/modbuiltins.o
mp_obj_str_get_buffer                             build/py/objstr.o
mp_obj_str_get_data                               build/py/objstr.o
                                                  build/py/modbuiltins.o
                                                  build/py/builtinimport.o
                                                  build/py/objint.o
                                                  build/py/runtime.o
mp_obj_str_get_qstr                               build/py/objstr.o
                                                  build/py/modbuiltins.o
                                                  build/py/objtype.o
                                                  build/py/runtime.o
mp_obj_str_get_str                                build/py/objstr.o
                                                  build/extmod/modos.o
                                                  build/py/builtinimport.o
                                                  build/py/objmodule.o
                                                  build/py/runtime.o
mp_obj_str_intern                                 build/py/objstr.o
mp_obj_str_intern_checked                         build/py/objstr.o
                                                  build/py/runtime.o
mp_obj_str_locals_dict                            build/py/objstr.o
mp_obj_str_make_new                               build/py/objstr.o
mp_obj_str_set_data                               build/py/objstr.o
mp_obj_str_split                                  build/py/objstr.o
mp_obj_subscr                                     build/py/obj.o
                                                  build/py/vm.o
                                                  build/py/objtype.o
mp_obj_tuple_binary_op                            build/py/objtuple.o
                                                  build/py/objattrtuple.o
mp_obj_tuple_del                                  build/py/objtuple.o
                                                  build/py/objzip.o
mp_obj_tuple_get                                  build/py/objtuple.o
                                                  build/py/objtype.o
                                                  build/py/obj.o
mp_obj_tuple_getiter                              build/py/objtuple.o
                                                  build/py/objattrtuple.o
mp_obj_tuple_print                                build/py/objtuple.o
                                                  build/py/objexcept.o
mp_obj_tuple_subscr                               build/py/objtuple.o
                                                  build/py/objattrtuple.o
mp_obj_tuple_unary_op                             build/py/objtuple.o
                                                  build/py/objattrtuple.o
mp_op_contains_obj                                build/py/opmethods.o
mp_op_delitem_obj                                 build/py/opmethods.o
                                                  build/py/objdict.o
mp_op_getitem_obj                                 build/py/opmethods.o
                                                  build/py/objdict.o
mp_op_setitem_obj                                 build/py/opmethods.o
                                                  build/py/objdict.o
mp_pairheap_delete                                build/py/pairheap.o
mp_pairheap_meld                                  build/py/pairheap.o
mp_pairheap_pairing                               build/py/pairheap.o
mp_parse                                          build/py/parse.o
                                                  build/main.o
                                                  build/py/runtime.o
mp_parse_compile_execute                          build/py/runtime.o
                                                  build/py/builtinevex.o
                                                  build/py/builtinimport.o
mp_parse_node_extract_list                        build/py/parse.o
                                                  build/py/compile.o
mp_parse_node_get_int_maybe                       build/py/parse.o
mp_parse_node_is_const_false                      build/py/parse.o
                                                  build/py/compile.o
mp_parse_node_is_const_true                       build/py/parse.o
                                                  build/py/compile.o
mp_parse_num_base                                 build/py/parsenumbase.o
                                                  build/py/parsenum.o
mp_parse_num_float                                build/py/parsenum.o
                                                  build/py/persistentcode.o
                                                  build/py/parse.o
mp_parse_num_integer                              build/py/parsenum.o
                                                  build/py/objint.o
                                                  build/py/persistentcode.o
                                                  build/py/parse.o
mp_parse_tree_clear                               build/py/parse.o
                                                  build/py/compile.o
mp_plat_print                                     build/py/mpprint.o
                                                  build/py/modsys.o
                                                  build/py/modbuiltins.o
                                                  build/py/obj.o
                                                  build/py/runtime_utils.o
mp_print_mp_int                                   build/py/mpprint.o
                                                  build/py/objstr.o
mp_print_str                                      build/py/mpprint.o
                                                  build/py/repl.o
                                                  build/py/modbuiltins.o
                                                  build/py/objtype.o
                                                  build/py/objtuple.o
                                                  build/py/objstr.o
                                                  build/py/objrange.o
                                                  build/py/objnone.o
                                                  build/py/objlist.o
                                                  build/py/objint.o
                                                  build/py/objexcept.o
                                                  build/py/objdict.o
                                                  build/py/objclosure.o
                                                  build/py/objcell.o
                                                  build/py/objboundmeth.o
                                                  build/py/objbool.o
                                                  build/py/objattrtuple.o
                                                  build/py/obj.o
                                                  build/py/warning.o
                                                  build/py/gc.o
mp_print_strn                                     build/py/mpprint.o
                                                  build/py/modbuiltins.o
                                                  build/py/objstr.o
mp_printf                                         build/py/mpprint.o
                                                  build/extmod/machine_mem.o
                                                  build/py/repl.o
                                                  build/py/objtype.o
                                                  build/py/objstr.o
                                                  build/py/objsingleton.o
                                                  build/py/objrange.o
                                                  build/py/objmodule.o
                                                  build/py/objgenerator.o
                                                  build/py/objclosure.o
                                                  build/py/objcell.o
                                                  build/py/objboundmeth.o
                                                  build/py/objattrtuple.o
                                                  build/py/obj.o
                                                  build/py/parsenum.o
                                                  build/py/gc.o
mp_qstr_const_lengths                             build/py/qstr.o
mp_qstr_const_lengths_static                      build/py/qstr.o
mp_qstr_const_pool                                build/py/qstr.o
mp_qstr_const_pool_static                         build/py/qstr.o
mp_raise_NotImplementedError                      build/py/runtime.o
                                                  build/py/modbuiltins.o
                                                  build/py/objstr.o
                                                  build/py/lexer.o
mp_raise_OSError                                  build/py/runtime.o
                                                  build/modio.o
                                                  build/extmod/modos.o
                                                  build/py/stream.o
mp_raise_OSError_with_filename                    build/py/runtime.o
                                                  build/modio.o
mp_raise_StopIteration                            build/py/runtime.o
                                                  build/py/modbuiltins.o
                                                  build/py/objgenerator.o
mp_raise_TypeError                                build/py/runtime.o
                                                  build/extmod/modtime.o
                                                  build/extmod/machine_signal.o
                                                  build/py/bc.o
                                                  build/py/modbuiltins.o
                                                  build/py/builtinevex.o
                                                  build/py/objtype.o
                                                  build/py/objstr.o
                                                  build/py/objgenerator.o
                                                  build/py/objdict.o
                                                  build/py/obj.o
                                                  build/py/argcheck.o
mp_raise_TypeError_int_conversion                 build/py/runtime.o
                                                  build/py/objint.o
                                                  build/py/obj.o
mp_raise_ValueError                               build/py/runtime.o
                                                  build/py/modbuiltins.o
                                                  build/py/builtinimport.o
                                                  build/py/binary.o
                                                  build/py/sequence.o
                                                  build/py/objstr.o
                                                  build/py/objrange.o
                                                  build/py/objint_mpz.o
                                                  build/py/objint.o
                                                  build/py/objgenerator.o
                                                  build/py/objdict.o
                                                  build/py/persistentcode.o
                                                  build/py/parsenum.o
mp_raise_msg                                      build/py/runtime.o
                                                  build/shared/libc/abort_.o
                                                  build/extmod/modtime.o
                                                  build/extmod/modmachine.o
                                                  build/py/modsys.o
                                                  build/py/builtinimport.o
                                                  build/py/stream.o
                                                  build/py/objstr.o
                                                  build/py/objlist.o
                                                  build/py/objint_mpz.o
                                                  build/py/objgenerator.o
                                                  build/py/objdict.o
                                                  build/py/emitbc.o
                                                  build/py/vstr.o
                                                  build/py/qstr.o
mp_raise_msg_varg                                 build/py/runtime.o
                                                  build/extmod/modmachine.o
                                                  build/py/bc.o
                                                  build/py/modbuiltins.o
                                                  build/py/builtinimport.o
                                                  build/py/objtype.o
                                                  build/py/objstr.o
                                                  build/py/obj.o
                                                  build/py/argcheck.o
mp_raise_type_arg                                 build/py/runtime.o
                                                  build/py/modsys.o
                                                  build/py/objstr.o
                                                  build/py/objdict.o
mp_raw_code_load                                  build/py/persistentcode.o
mp_raw_code_load_mem                              build/py/persistentcode.o
mp_reader_new_file                                build/modio.o
                                                  build/lexer.o
mp_reader_new_file_from_fd                        build/modio.o
                                                  build/lexer.o
mp_reader_new_mem                                 build/py/reader.o
                                                  build/py/persistentcode.o
                                                  build/py/lexer.o
mp_repl_autocomplete                              build/py/repl.o
mp_repl_continue_with_input                       build/py/repl.o
mp_resume                                         build/py/runtime.o
                                                  build/py/vm.o
mp_sched_exception                                build/py/scheduler.o
mp_sched_keyboard_interrupt                       build/py/scheduler.o
mp_seq_cmp_bytes                                  build/py/sequence.o
                                                  build/py/objstr.o
mp_seq_cmp_objs                                   build/py/sequence.o
                                                  build/py/objtuple.o
                                                  build/py/objlist.o
mp_seq_count_obj                                  build/py/sequence.o
                                                  build/py/objtuple.o
                                                  build/py/objlist.o
mp_seq_extract_slice                              build/py/sequence.o
mp_seq_index_obj                                  build/py/sequence.o
                                                  build/py/objtuple.o
                                                  build/py/objlist.o
mp_seq_multiply                                   build/py/sequence.o
                                                  build/py/objtuple.o
                                                  build/py/objstr.o
                                                  build/py/objlist.o
mp_setup_code_state                               build/py/bc.o
                                                  build/py/objgenerator.o
                                                  build/py/objfun.o
mp_small_int_floor_divide                         build/py/smallint.o
                                                  build/py/runtime.o
mp_small_int_modulo                               build/py/smallint.o
                                                  build/py/runtime.o
mp_small_int_mul_overflow                         build/py/smallint.o
                                                  build/py/runtime.o
                                                  build/py/parsenum.o
mp_stack_ctrl_init                                build/py/stackctrl.o
                                                  build/main.o
mp_stack_set_top                                  build/py/stackctrl.o
mp_stack_usage                                    build/py/stackctrl.o
mp_state_ctx                                      build/py/mpstate.o
                                                  build/main.o
                                                  build/shared/runtime/gchelper_generic.o
                                                  build/py/repl.o
                                                  build/py/vm.o
                                                  build/py/modsys.o
                                                  build/py/modbuiltins.o
                                                  build/py/builtinevex.o
                                                  build/py/builtinimport.o
                                                  build/py/objmodule.o
                                                  build/py/objgenerator.o
                                                  build/py/objfun.o
                                                  build/py/objexcept.o
                                                  build/py/stackctrl.o
                                                  build/py/scheduler.o
                                                  build/py/runtime.o
                                                  build/py/compile.o
                                                  build/py/lexer.o
                                                  build/py/qstr.o
                                                  build/py/gc.o
                                                  build/py/malloc.o
                                                  build/py/nlrx64.o
                                                  build/py/nlr.o
mp_stderr_print                                   build/main.o
                                                  build/py/warning.o
mp_store_attr                                     build/py/runtime.o
                                                  build/py/vm.o
                                                  build/py/modbuiltins.o
                                                  build/py/builtinimport.o
mp_store_global                                   build/py/runtime.o
                                                  build/py/vm.o
mp_store_name                                     build/py/runtime.o
                                                  build/py/vm.o
mp_str_print_quoted                               build/py/objstr.o
                                                  build/py/parsenum.o
mp_stream___exit___obj                            build/py/stream.o
mp_stream_close                                   build/py/stream.o
mp_stream_close_obj                               build/py/stream.o
mp_stream_flush_obj                               build/py/stream.o
mp_stream_ioctl_obj                               build/py/stream.o
mp_stream_read1_obj                               build/py/stream.o
mp_stream_read_obj                                build/py/stream.o
mp_stream_readinto_obj                            build/py/stream.o
mp_stream_rw                                      build/py/stream.o
mp_stream_seek                                    build/py/stream.o
mp_stream_seek_obj                                build/py/stream.o
mp_stream_tell_obj                                build/py/stream.o
mp_stream_unbuffered_iter                         build/py/stream.o
                                                  build/py/runtime.o
mp_stream_unbuffered_readline_obj                 build/py/stream.o
mp_stream_unbuffered_readlines_obj                build/py/stream.o
mp_stream_write                                   build/py/stream.o
mp_stream_write1_obj                              build/py/stream.o
mp_stream_write_adaptor                           build/py/stream.o
mp_stream_write_obj                               build/py/stream.o
mp_sys_exc_info_obj                               build/py/modsys.o
mp_sys_executable_obj                             build/py/modsys.o
mp_sys_exit_obj                                   build/py/modsys.o
mp_sys_print_exception_obj                        build/py/modsys.o
mp_time_sleep_ms_obj                              build/extmod/modtime.o
mp_time_sleep_obj                                 build/extmod/modtime.o
mp_time_sleep_us_obj                              build/extmod/modtime.o
mp_time_ticks_add_obj                             build/extmod/modtime.o
mp_time_ticks_cpu_obj                             build/extmod/modtime.o
mp_time_ticks_diff_obj                            build/extmod/modtime.o
mp_time_ticks_ms_obj                              build/extmod/modtime.o
mp_time_ticks_us_obj                              build/extmod/modtime.o
mp_time_time_ns_obj                               build/extmod/modtime.o
mp_type_ArithmeticError                           build/py/objexcept.o
                                                  build/py/modbuiltins.o
mp_type_AssertionError                            build/py/objexcept.o
                                                  build/py/modbuiltins.o
mp_type_AttributeError                            build/py/objexcept.o
                                                  build/py/modbuiltins.o
                                                  build/py/runtime.o
mp_type_BaseException                             build/py/objexcept.o
                                                  build/py/modbuiltins.o
mp_type_EOFError                                  build/py/objexcept.o
                                                  build/py/modbuiltins.o
mp_type_Exception                                 build/py/objexcept.o
                                                  build/py/modbuiltins.o
mp_type_GeneratorExit                             build/py/objexcept.o
                                                  build/py/vm.o
                                                  build/py/modbuiltins.o
                                                  build/py/objgenerator.o
                                                  build/py/runtime.o
mp_type_ImportError                               build/py/objexcept.o
                                                  build/py/modbuiltins.o
                                                  build/py/builtinimport.o
                                                  build/py/runtime.o
mp_type_IndentationError                          build/py/objexcept.o
                                                  build/py/modbuiltins.o
                                                  build/py/parse.o
mp_type_IndexError                                build/py/objexcept.o
                                                  build/py/modbuiltins.o
                                                  build/py/objstr.o
                                                  build/py/objlist.o
                                                  build/py/objgetitemiter.o
                                                  build/py/obj.o
mp_type_KeyError                                  build/py/objexcept.o
                                                  build/py/modbuiltins.o
                                                  build/py/objstr.o
                                                  build/py/objdict.o
mp_type_KeyboardInterrupt                         build/py/objexcept.o
                                                  build/py/modbuiltins.o
                                                  build/py/runtime.o
mp_type_LookupError                               build/py/objexcept.o
                                                  build/py/modbuiltins.o
mp_type_MemoryError                               build/py/objexcept.o
                                                  build/py/modbuiltins.o
                                                  build/py/runtime.o
mp_type_NameError                                 build/py/objexcept.o
                                                  build/py/vm.o
                                                  build/py/modbuiltins.o
                                                  build/py/runtime.o
mp_type_NoneType                                  build/py/objnone.o
                                                  build/py/builtinevex.o
                                                  build/py/objtype.o
                                                  build/py/objstr.o
                                                  build/py/objint.o
                                                  build/py/objfun.o
                                                  build/py/objexcept.o
                                                  build/py/obj.o
                                                  build/py/runtime.o
                                                  build/py/emitglue.o
mp_type_NotImplementedError                       build/py/objexcept.o
                                                  build/py/vm.o
                                                  build/py/modbuiltins.o
                                                  build/py/runtime.o
mp_type_OSError                                   build/py/objexcept.o
                                                  build/py/modbuiltins.o
                                                  build/py/stream.o
                                                  build/py/runtime.o
mp_type_OverflowError                             build/py/objexcept.o
                                                  build/extmod/modtime.o
                                                  build/py/modbuiltins.o
                                                  build/py/objint_mpz.o
mp_type_RuntimeError                              build/py/objexcept.o
                                                  build/shared/libc/abort_.o
                                                  build/py/vm.o
                                                  build/py/modbuiltins.o
                                                  build/py/objgenerator.o
                                                  build/py/runtime.o
                                                  build/py/emitbc.o
                                                  build/py/vstr.o
                                                  build/py/qstr.o
mp_type_StopAsyncIteration                        build/py/objexcept.o
                                                  build/py/modbuiltins.o
mp_type_StopIteration                             build/py/objexcept.o
                                                  build/py/vm.o
                                                  build/py/modbuiltins.o
                                                  build/py/objgetitemiter.o
                                                  build/py/objgenerator.o
                                                  build/py/runtime.o
mp_type_SyntaxError                               build/py/objexcept.o
                                                  build/py/modbuiltins.o
                                                  build/py/parsenum.o
                                                  build/py/compile.o
                                                  build/py/parse.o
mp_type_SystemExit                                build/py/objexcept.o
                                                  build/main.o
                                                  build/extmod/modmachine.o
                                                  build/py/modsys.o
                                                  build/py/modbuiltins.o
mp_type_TypeError                                 build/py/objexcept.o
                                                  build/py/bc.o
                                                  build/py/modbuiltins.o
                                                  build/py/objtype.o
                                                  build/py/objstr.o
                                                  build/py/obj.o
                                                  build/py/argcheck.o
                                                  build/py/runtime.o
mp_type_ValueError                                build/py/objexcept.o
                                                  build/extmod/modmachine.o
                                                  build/py/modbuiltins.o
                                                  build/py/objstr.o
                                                  build/py/obj.o
                                                  build/py/runtime.o
                                                  build/py/parsenum.o
mp_type_ZeroDivisionError                         build/py/objexcept.o
                                                  build/py/modbuiltins.o
                                                  build/py/objint_mpz.o
                                                  build/py/runtime.o
mp_type_attrtuple                                 build/py/objattrtuple.o
                                                  build/py/modsys.o
mp_type_bool                                      build/py/objbool.o
                                                  build/py/modbuiltins.o
                                                  build/py/builtinevex.o
                                                  build/py/objtype.o
                                                  build/py/objstr.o
                                                  build/py/objint.o
                                                  build/py/objfun.o
                                                  build/py/objexcept.o
                                                  build/py/obj.o
                                                  build/py/runtime.o
                                                  build/py/emitglue.o
mp_type_bound_meth                                build/py/objboundmeth.o
mp_type_bytes                                     build/py/objstr.o
                                                  build/py/modbuiltins.o
                                                  build/py/obj.o
                                                  build/py/gc.o
mp_type_classmethod                               build/py/objtype.o
                                                  build/py/modbuiltins.o
                                                  build/py/objint.o
                                                  build/py/objdict.o
                                                  build/py/runtime.o
mp_type_closure                                   build/py/objclosure.o
mp_type_dict                                      build/py/objdict.o
                                                  build/extmod/modtime.o
                                                  build/extmod/modos.o
                                                  build/extmod/modmachine.o
                                                  build/extmod/machine_signal.o
                                                  build/py/modsys.o
                                                  build/py/modbuiltins.o
                                                  build/py/builtinevex.o
                                                  build/py/objtuple.o
                                                  build/py/objstr.o
                                                  build/py/objlist.o
                                                  build/py/objint.o
                                                  build/py/objgenerator.o
                                                  build/py/objfun.o
                                                  build/py/runtime.o
                                                  build/py/emitglue.o
                                                  build/py/gc.o
mp_type_fun_bc                                    build/py/objfun.o
                                                  build/py/gc.o
mp_type_fun_builtin_0                             build/py/objfun.o
                                                  build/extmod/modtime.o
                                                  build/extmod/modmachine.o
                                                  build/py/modsys.o
                                                  build/py/modbuiltins.o
mp_type_fun_builtin_1                             build/py/objfun.o
                                                  build/extmod/modtime.o
                                                  build/extmod/modos.o
                                                  build/extmod/machine_signal.o
                                                  build/py/modsys.o
                                                  build/py/modbuiltins.o
                                                  build/py/stream.o
                                                  build/py/objstr.o
                                                  build/py/objlist.o
                                                  build/py/objgenerator.o
                                                  build/py/objdict.o
                                                  build/py/obj.o
mp_type_fun_builtin_2                             build/py/objfun.o
                                                  build/extmod/modtime.o
                                                  build/py/modbuiltins.o
                                                  build/py/stream.o
                                                  build/py/opmethods.o
                                                  build/py/objtype.o
                                                  build/py/objtuple.o
                                                  build/py/objstr.o
                                                  build/py/objlist.o
                                                  build/py/objgenerator.o
mp_type_fun_builtin_3                             build/py/objfun.o
                                                  build/py/modbuiltins.o
                                                  build/py/opmethods.o
                                                  build/py/objlist.o
mp_type_fun_builtin_var                           build/py/objfun.o
                                                  build/extmod/modtime.o
                                                  build/extmod/machine_signal.o
                                                  build/extmod/machine_pulse.o
                                                  build/py/modsys.o
                                                  build/py/modbuiltins.o
                                                  build/py/builtinevex.o
                                                  build/py/builtinimport.o
                                                  build/py/stream.o
                                                  build/py/objtype.o
                                                  build/py/objtuple.o
                                                  build/py/objstr.o
                                                  build/py/objlist.o
                                                  build/py/objint.o
                                                  build/py/objgenerator.o
                                                  build/py/objdict.o
mp_type_gen_instance                              build/py/objgenerator.o
                                                  build/py/runtime.o
mp_type_gen_wrap                                  build/py/objgenerator.o
                                                  build/py/emitglue.o
mp_type_int                                       build/py/objint.o
                                                  build/py/modbuiltins.o
                                                  build/py/builtinevex.o
                                                  build/py/binary.o
                                                  build/py/objtype.o
                                                  build/py/objstr.o
                                                  build/py/objint_mpz.o
                                                  build/py/objfun.o
                                                  build/py/objexcept.o
                                                  build/py/obj.o
                                                  build/py/runtime.o
                                                  build/py/emitglue.o
                                                  build/py/parse.o
                                                  build/py/mpprint.o
mp_type_list                                      build/py/objlist.o
                                                  build/py/modbuiltins.o
                                                  build/py/objstr.o
                                                  build/py/objint.o
                                                  build/py/obj.o
                                                  build/py/runtime.o
                                                  build/py/gc.o
mp_type_map                                       build/py/objmap.o
                                                  build/py/modbuiltins.o
mp_type_module                                    build/py/objmodule.o
                                                  build/extmod/modtime.o
                                                  build/extmod/modos.o
                                                  build/extmod/modmachine.o
                                                  build/py/modsys.o
                                                  build/py/modbuiltins.o
                                                  build/py/runtime.o
                                                  build/py/gc.o
mp_type_object                                    build/py/objobject.o
                                                  build/py/modbuiltins.o
                                                  build/py/objtype.o
mp_type_polymorph_iter                            build/py/objpolyiter.o
                                                  build/py/objtuple.o
                                                  build/py/objstr.o
                                                  build/py/objlist.o
mp_type_range                                     build/py/objrange.o
                                                  build/py/modbuiltins.o
mp_type_singleton                                 build/py/objsingleton.o
mp_type_staticmethod                              build/py/objtype.o
                                                  build/py/modbuiltins.o
                                                  build/py/runtime.o
mp_type_str                                       build/py/objstr.o
                                                  build/py/modsys.o
                                                  build/py/modbuiltins.o
                                                  build/py/builtinevex.o
                                                  build/py/objtype.o
                                                  build/py/objint.o
                                                  build/py/objfun.o
                                                  build/py/objexcept.o
                                                  build/py/obj.o
                                                  build/py/map.o
                                                  build/py/runtime.o
                                                  build/py/emitglue.o
                                                  build/py/parse.o
                                                  build/py/gc.o
mp_type_super                                     build/py/objtype.o
                                                  build/py/modbuiltins.o
mp_type_tuple                                     build/py/objtuple.o
                                                  build/py/modsys.o
                                                  build/py/modbuiltins.o
                                                  build/py/objtype.o
                                                  build/py/objstr.o
                                                  build/py/objint.o
                                                  build/py/objfun.o
                                                  build/py/objexcept.o
                                                  build/py/obj.o
                                                  build/py/runtime.o
                                                  build/py/emitglue.o
                                                  build/py/emitcommon.o
                                                  build/py/gc.o
mp_type_type                                      build/py/objtype.o
                                                  build/extmod/machine_signal.o
                                                  build/extmod/machine_pinbase.o
                                                  build/extmod/machine_mem.o
                                                  build/py/modbuiltins.o
                                                  build/py/objzip.o
                                                  build/py/objtuple.o
                                                  build/py/objstr.o
                                                  build/py/objsingleton.o
                                                  build/py/objrange.o
                                                  build/py/objnone.o
                                                  build/py/objpolyiter.o
                                                  build/py/objobject.o
                                                  build/py/objmodule.o
                                                  build/py/objmap.o
                                                  build/py/objlist.o
                                                  build/py/objint.o
                                                  build/py/objgetitemiter.o
                                                  build/py/objgenerator.o
                                                  build/py/objfun.o
                                                  build/py/objexcept.o
                                                  build/py/objdict.o
                                                  build/py/objclosure.o
                                                  build/py/objcell.o
                                                  build/py/objboundmeth.o
                                                  build/py/objbool.o
                                                  build/py/objattrtuple.o
                                                  build/py/runtime.o
mp_type_zip                                       build/py/objzip.o
                                                  build/py/modbuiltins.o
mp_unary_op                                       build/py/runtime.o
                                                  build/py/vm.o
                                                  build/py/modbuiltins.o
                                                  build/py/objtype.o
                                                  build/py/objtuple.o
                                                  build/py/objint.o
                                                  build/py/objbool.o
                                                  build/py/obj.o
                                                  build/py/map.o
                                                  build/py/parse.o
mp_unary_op_method_name                           build/py/objtype.o
                                                  build/py/runtime.o
mp_unpack_ex                                      build/py/runtime.o
                                                  build/py/vm.o
mp_unpack_sequence                                build/py/runtime.o
                                                  build/py/vm.o
mp_virtual_pin_read                               build/extmod/virtpin.o
                                                  build/extmod/machine_signal.o
                                                  build/extmod/machine_pulse.o
mp_virtual_pin_write                              build/extmod/virtpin.o
                                                  build/extmod/machine_signal.o
mp_vprintf                                        build/py/mpprint.o
                                                  build/py/objexcept.o
                                                  build/py/warning.o
                                                  build/py/vstr.o
mp_warning                                        build/py/warning.o
                                                  build/py/vm.o
                                                  build/py/obj.o
mpz_abs_inpl                                      build/py/mpz.o
                                                  build/py/objint_mpz.o
mpz_add_inpl                                      build/py/mpz.o
                                                  build/py/objint_mpz.o
mpz_and_inpl                                      build/py/mpz.o
                                                  build/py/objint_mpz.o
mpz_as_bytes                                      build/py/mpz.o
                                                  build/py/objint_mpz.o
mpz_as_int_checked                                build/py/mpz.o
                                                  build/py/objint_mpz.o
mpz_as_str_inpl                                   build/py/mpz.o
                                                  build/py/objint_mpz.o
mpz_as_uint_checked                               build/py/mpz.o
                                                  build/py/objint_mpz.o
mpz_cmp                                           build/py/mpz.o
                                                  build/py/objint_mpz.o
mpz_deinit                                        build/py/mpz.o
                                                  build/py/objint_mpz.o
mpz_divmod_inpl                                   build/py/mpz.o
                                                  build/py/objint_mpz.o
mpz_hash                                          build/py/mpz.o
                                                  build/py/objint_mpz.o
mpz_init_fixed_from_int                           build/py/mpz.o
                                                  build/py/objint_mpz.o
mpz_init_from_int                                 build/py/mpz.o
mpz_init_zero                                     build/py/mpz.o
                                                  build/py/objint_mpz.o
mpz_mul_inpl                                      build/py/mpz.o
                                                  build/py/objint_mpz.o
mpz_neg_inpl                                      build/py/mpz.o
                                                  build/py/objint_mpz.o
mpz_not_inpl                                      build/py/mpz.o
                                                  build/py/objint_mpz.o
mpz_or_inpl                                       build/py/mpz.o
                                                  build/py/objint_mpz.o
mpz_pow3_inpl                                     build/py/mpz.o
mpz_pow_inpl                                      build/py/mpz.o
                                                  build/py/objint_mpz.o
mpz_set                                           build/py/mpz.o
mpz_set_from_bytes                                build/py/mpz.o
                                                  build/py/objint_mpz.o
mpz_set_from_int                                  build/py/mpz.o
mpz_set_from_ll                                   build/py/mpz.o
                                                  build/py/objint_mpz.o
mpz_set_from_str                                  build/py/mpz.o
                                                  build/py/objint_mpz.o
mpz_shl_inpl                                      build/py/mpz.o
                                                  build/py/objint_mpz.o
mpz_shr_inpl                                      build/py/mpz.o
                                                  build/py/objint_mpz.o
mpz_sub_inpl                                      build/py/mpz.o
                                                  build/py/objint_mpz.o
mpz_xor_inpl                                      build/py/mpz.o
                                                  build/py/objint_mpz.o
nlr_call_jump_callbacks                           build/py/nlr.o
                                                  build/py/nlrx64.o
nlr_jump                                          build/py/nlrx64.o
                                                  build/py/objgetitemiter.o
                                                  build/py/objgenerator.o
                                                  build/py/objfun.o
                                                  build/py/scheduler.o
                                                  build/py/runtime.o
                                                  build/py/parsenum.o
                                                  build/py/compile.o
                                                  build/py/parse.o
nlr_jump_fail                                     build/main.o
                                                  build/py/nlrx64.o
nlr_pop                                           build/py/nlr.o
                                                  build/main.o
                                                  build/py/vm.o
                                                  build/py/objgetitemiter.o
                                                  build/py/runtime_utils.o
                                                  build/py/runtime.o
nlr_pop_jump_callback                             build/py/nlr.o
                                                  build/py/builtinimport.o
                                                  build/py/runtime.o
                                                  build/py/persistentcode.o
                                                  build/py/parse.o
nlr_push                                          build/py/nlrx64.o
                                                  build/main.o
                                                  build/py/vm.o
                                                  build/py/objgetitemiter.o
                                                  build/py/runtime_utils.o
                                                  build/py/runtime.o
nlr_push_jump_callback                            build/py/nlr.o
                                                  build/py/builtinimport.o
                                                  build/py/runtime.o
                                                  build/py/persistentcode.o
                                                  build/py/parse.o
nlr_push_tail                                     build/py/nlr.o
                                                  build/py/nlrx64.o
open                                              ../../../obj/lib/libjos.a(file.o)
                                                  ../../../obj/lib/libjos.a(spawn.o)
                                                  ../../../obj/lib/libjos.a(fd.o)
                                                  build/modio.o
opencons                                          ../../../obj/lib/libjos.a(console.o)
pinbase_ioctl                                     build/extmod/machine_pinbase.o
pipe                                              ../../../obj/lib/libjos.a(pipe.o)
pipeisclosed                                      ../../../obj/lib/libjos.a(pipe.o)
printf                                            ../../../obj/lib/libjos.a(fprintf.o)
printfmt                                          ../../../obj/lib/libjos.a(printfmt.o)
prompt                                            build/input.o
pyexec_system_exit                                build/extmod/modmachine.o
qstr_compute_hash                                 build/py/qstr.o
                                                  build/py/objstr.o
                                                  build/py/objexcept.o
                                                  build/py/runtime.o
qstr_data                                         build/py/qstr.o
                                                  build/py/repl.o
                                                  build/py/objstr.o
                                                  build/py/objmodule.o
                                                  build/py/runtime.o
                                                  build/py/compile.o
                                                  build/py/mpprint.o
qstr_find_strn                                    build/py/qstr.o
                                                  build/py/repl.o
                                                  build/py/objstr.o
                                                  build/py/parse.o
qstr_from_str                                     build/py/qstr.o
                                                  build/main.o
                                                  build/py/builtinimport.o
qstr_from_strn                                    build/py/qstr.o
                                                  build/py/builtinimport.o
                                                  build/py/objstr.o
                                                  build/py/objmodule.o
                                                  build/py/runtime.o
                                                  build/py/persistentcode.o
                                                  build/py/compile.o
                                                  build/py/parse.o
qstr_hash                                         build/py/qstr.o
                                                  build/py/objstr.o
                                                  build/py/map.o
                                                  build/py/runtime.o
qstr_init                                         build/py/qstr.o
                                                  build/py/runtime.o
qstr_len                                          build/py/qstr.o
                                                  build/py/objstr.o
                                                  build/py/obj.o
                                                  build/py/runtime.o
                                                  build/py/compile.o
qstr_pool_info                                    build/py/qstr.o
qstr_str                                          build/py/qstr.o
                                                  build/modio.o
                                                  build/py/builtinimport.o
                                                  build/py/objtype.o
                                                  build/py/objexcept.o
                                                  build/py/obj.o
                                                  build/py/runtime.o
rand                                              ../../../obj/lib/libjos.a(random.o)
                                                  build/mphalport.o
rand_init                                         ../../../obj/lib/libjos.a(random.o)
read                                              ../../../obj/lib/libjos.a(fd.o)
                                                  ../../../obj/lib/libjos.a(console.o)
                                                  build/modio.o
                                                  build/mphalport.o
readline                                          ../../../obj/lib/libjos.a(readline.o)
                                                  build/input.o
readn                                             ../../../obj/lib/libjos.a(fd.o)
                                                  ../../../obj/lib/libjos.a(spawn.o)
ringbuf_get16                                     build/py/ringbuf.o
ringbuf_get_bytes                                 build/py/ringbuf.o
ringbuf_peek16                                    build/py/ringbuf.o
ringbuf_put16                                     build/py/ringbuf.o
ringbuf_put_bytes                                 build/py/ringbuf.o
scope_check_to_close_over                         build/py/scope.o
                                                  build/py/compile.o
scope_find                                        build/py/scope.o
                                                  build/py/emitcommon.o
                                                  build/py/compile.o
scope_find_global                                 build/py/scope.o
                                                  build/py/compile.o
scope_find_or_add_id                              build/py/scope.o
                                                  build/py/emitcommon.o
                                                  build/py/compile.o
scope_free                                        build/py/scope.o
                                                  build/py/compile.o
scope_new                                         build/py/scope.o
                                                  build/py/compile.o
seek                                              ../../../obj/lib/libjos.a(fd.o)
                                                  ../../../obj/lib/libjos.a(spawn.o)
snprintf                                          ../../../obj/lib/libjos.a(printfmt.o)
spawn                                             ../../../obj/lib/libjos.a(spawn.o)
spawnl                                            ../../../obj/lib/libjos.a(spawn.o)
srand                                             ../../../obj/lib/libjos.a(random.o)
stat                                              ../../../obj/lib/libjos.a(fd.o)
                                                  build/modio.o
str_endswith_obj                                  build/py/objstr.o
str_find_obj                                      build/py/objstr.o
str_format_obj                                    build/py/objstr.o
str_index_obj                                     build/py/objstr.o
str_index_to_ptr                                  build/py/objstr.o
str_isalpha_obj                                   build/py/objstr.o
str_isdigit_obj                                   build/py/objstr.o
str_islower_obj                                   build/py/objstr.o
str_isspace_obj                                   build/py/objstr.o
str_isupper_obj                                   build/py/objstr.o
str_join_obj                                      build/py/objstr.o
str_lower_obj                                     build/py/objstr.o
str_lstrip_obj                                    build/py/objstr.o
str_replace_obj                                   build/py/objstr.o
str_rfind_obj                                     build/py/objstr.o
str_rindex_obj                                    build/py/objstr.o
str_rsplit_obj                                    build/py/objstr.o
str_rstrip_obj                                    build/py/objstr.o
str_split_obj                                     build/py/objstr.o
str_startswith_obj                                build/py/objstr.o
str_strip_obj                                     build/py/objstr.o
str_upper_obj                                     build/py/objstr.o
strcat                                            ../../../obj/lib/libjos.a(string.o)
strchr                                            ../../../obj/lib/libjos.a(string.o)
                                                  ../../../obj/lib/libjos.a(spawn.o)
                                                  build/py/objstr.o
strcmp                                            ../../../obj/lib/libjos.a(string.o)
                                                  build/main.o
                                                  build/py/lexer.o
strcpy                                            ../../../obj/lib/libjos.a(string.o)
                                                  ../../../obj/lib/libjos.a(console.o)
                                                  ../../../obj/lib/libjos.a(pipe.o)
                                                  ../../../obj/lib/libjos.a(spawn.o)
                                                  ../../../obj/lib/libjos.a(file.o)
strfind                                           ../../../obj/lib/libjos.a(string.o)
strlcat                                           ../../../obj/lib/libjos.a(string.o)
strlcpy                                           ../../../obj/lib/libjos.a(string.o)
strlen                                            ../../../obj/lib/libjos.a(string.o)
                                                  ../../../obj/lib/libjos.a(spawn.o)
                                                  ../../../obj/lib/libjos.a(file.o)
                                                  build/mphalport.o
                                                  build/main.o
                                                  build/py/binary.o
                                                  build/py/objint.o
                                                  build/py/objexcept.o
                                                  build/py/mpz.o
                                                  build/py/mpprint.o
                                                  build/py/vstr.o
                                                  build/py/qstr.o
strncmp                                           ../../../obj/lib/libjos.a(string.o)
                                                  ../../../obj/lib/libjos.a(spawn.o)
                                                  build/main.o
                                                  build/py/repl.o
                                                  build/py/qstr.o
strncpy                                           ../../../obj/lib/libjos.a(string.o)
strnlen                                           ../../../obj/lib/libjos.a(string.o)
                                                  ../../../obj/lib/libjos.a(printfmt.o)
strrchr                                           ../../../obj/lib/libjos.a(string.o)
                                                  build/main.o
strtol                                            ../../../obj/lib/libjos.a(string.o)
                                                  build/main.o
sync                                              ../../../obj/lib/libjos.a(file.o)
sys_alloc_region                                  ../../../obj/lib/libjos.a(syscall.o)
                                                  ../../../obj/lib/libjos.a(console.o)
                                                  ../../../obj/lib/libjos.a(pipe.o)
                                                  ../../../obj/lib/libjos.a(spawn.o)
                                                  build/main.o
sys_cgetc                                         ../../../obj/lib/libjos.a(syscall.o)
                                                  ../../../obj/lib/libjos.a(console.o)
sys_cputs                                         ../../../obj/lib/libjos.a(syscall.o)
                                                  ../../../obj/lib/libjos.a(console.o)
                                                  ../../../obj/lib/libjos.a(printf.o)
sys_env_destroy                                   ../../../obj/lib/libjos.a(syscall.o)
                                                  ../../../obj/lib/libjos.a(spawn.o)
                                                  ../../../obj/lib/libjos.a(exit.o)
sys_env_set_pgfault_upcall                        ../../../obj/lib/libjos.a(syscall.o)
sys_env_set_status                                ../../../obj/lib/libjos.a(syscall.o)
                                                  ../../../obj/lib/libjos.a(spawn.o)
sys_env_set_trapframe                             ../../../obj/lib/libjos.a(syscall.o)
                                                  ../../../obj/lib/libjos.a(spawn.o)
sys_getenvid                                      ../../../obj/lib/libjos.a(syscall.o)
                                                  ../../../obj/lib/libjos.a(panic.o)
                                                  ../../../obj/lib/libjos.a(libmain.o)
sys_gettime                                       ../../../obj/lib/libjos.a(syscall.o)
sys_ipc_recv                                      ../../../obj/lib/libjos.a(syscall.o)
                                                  ../../../obj/lib/libjos.a(ipc.o)
sys_ipc_try_send                                  ../../../obj/lib/libjos.a(syscall.o)
                                                  ../../../obj/lib/libjos.a(ipc.o)
sys_map_physical_region                           ../../../obj/lib/libjos.a(syscall.o)
sys_map_region                                    ../../../obj/lib/libjos.a(syscall.o)
                                                  ../../../obj/lib/libjos.a(pipe.o)
                                                  ../../../obj/lib/libjos.a(spawn.o)
                                                  ../../../obj/lib/libjos.a(fd.o)
sys_region_refs                                   ../../../obj/lib/libjos.a(syscall.o)
                                                  ../../../obj/lib/libjos.a(pipe.o)
sys_region_refs2                                  ../../../obj/lib/libjos.a(syscall.o)
                                                  ../../../obj/lib/libjos.a(pipe.o)
sys_unmap_region                                  ../../../obj/lib/libjos.a(syscall.o)
                                                  ../../../obj/lib/libjos.a(pipe.o)
                                                  ../../../obj/lib/libjos.a(spawn.o)
                                                  ../../../obj/lib/libjos.a(fd.o)
                                                  build/main.o
sys_usleep                                        ../../../obj/lib/libjos.a(syscall.o)
                                                  build/extmod/modtime.o
                                                  build/py/scheduler.o
sys_yield                                         ../../../obj/lib/libjos.a(syscall.o)
                                                  ../../../obj/lib/libjos.a(ipc.o)
                                                  ../../../obj/lib/libjos.a(console.o)
                                                  ../../../obj/lib/libjos.a(wait.o)
                                                  ../../../obj/lib/libjos.a(pipe.o)
                                                  build/extmod/modmachine.o
system                                            ../../../obj/lib/libjos.a(spawn.o)
                                                  build/extmod/modos.o
thisenv                                           ../../../obj/lib/libjos.a(libmain.o)
                                                  ../../../obj/lib/libjos.a(ipc.o)
                                                  ../../../obj/lib/libjos.a(fd.o)
timeutils_calc_weekday                            build/shared/timeutils/timeutils.o
timeutils_days_in_month                           build/shared/timeutils/timeutils.o
timeutils_is_leap_year                            build/shared/timeutils/timeutils.o
timeutils_mktime_2000                             build/shared/timeutils/timeutils.o
timeutils_seconds_since_2000                      build/shared/timeutils/timeutils.o
timeutils_seconds_since_2000_to_struct_time       build/shared/timeutils/timeutils.o
timeutils_year_day                                build/shared/timeutils/timeutils.o
                                                  build/extmod/modtime.o
umain                                             build/main.o
                                                  ../../../obj/lib/libjos.a(libmain.o)
unichar_isalnum                                   build/py/unicode.o
unichar_isalpha                                   build/py/unicode.o
                                                  build/py/repl.o
                                                  build/py/objstr.o
                                                  build/py/lexer.o
unichar_isdigit                                   build/py/unicode.o
                                                  build/main.o
                                                  build/py/repl.o
                                                  build/py/objstr.o
                                                  build/py/lexer.o
unichar_isident                                   build/py/unicode.o
                                                  build/py/repl.o
unichar_islower                                   build/py/unicode.o
                                                  build/py/objstr.o
unichar_isspace                                   build/py/unicode.o
                                                  build/py/objstr.o
                                                  build/py/parsenum.o
                                                  build/py/lexer.o
unichar_isupper                                   build/py/unicode.o
                                                  build/py/objstr.o
unichar_isxdigit                                  build/py/unicode.o
                                                  build/py/lexer.o
unichar_tolower                                   build/py/unicode.o
                                                  build/py/objstr.o
unichar_toupper                                   build/py/unicode.o
                                                  build/py/objstr.o
unichar_xdigit_value                              build/py/unicode.o
                                                  build/py/lexer.o
uvpd                                              ../../../obj/lib/entry.o
                                                  ../../../obj/lib/libjos.a(uvpt.o)
uvpdp                                             ../../../obj/lib/entry.o
                                                  ../../../obj/lib/libjos.a(uvpt.o)
uvpml4                                            ../../../obj/lib/entry.o
                                                  ../../../obj/lib/libjos.a(uvpt.o)
uvpt                                              ../../../obj/lib/entry.o
                                                  ../../../obj/lib/libjos.a(uvpt.o)
vcprintf                                          ../../../obj/lib/libjos.a(printf.o)
                                                  ../../../obj/lib/libjos.a(panic.o)
vfdprintf                                         ../../../obj/lib/libjos.a(fprintf.o)
vprintfmt                                         ../../../obj/lib/libjos.a(printfmt.o)
                                                  ../../../obj/lib/libjos.a(fprintf.o)
                                                  ../../../obj/lib/libjos.a(printf.o)
vsnprintf                                         ../../../obj/lib/libjos.a(printfmt.o)
vstr_add_byte                                     build/py/vstr.o
                                                  build/py/objstr.o
                                                  build/py/lexer.o
vstr_add_char                                     build/py/vstr.o
                                                  build/py/builtinimport.o
                                                  build/py/lexer.o
vstr_add_len                                      build/py/vstr.o
                                                  build/py/stream.o
vstr_add_str                                      build/py/vstr.o
                                                  build/py/builtinimport.o
vstr_add_strn                                     build/py/vstr.o
                                                  build/py/builtinimport.o
vstr_clear                                        build/py/vstr.o
                                                  build/py/stream.o
                                                  build/py/objstr.o
                                                  build/py/lexer.o
vstr_cut_head_bytes                               build/py/vstr.o
vstr_cut_out_bytes                                build/py/vstr.o
vstr_cut_tail_bytes                               build/py/vstr.o
                                                  build/py/stream.o
                                                  build/py/lexer.o
vstr_extend                                       build/py/vstr.o
                                                  build/py/stream.o
vstr_free                                         build/py/vstr.o
vstr_hint_size                                    build/py/vstr.o
vstr_init                                         build/py/vstr.o
                                                  build/py/stream.o
                                                  build/py/objstr.o
                                                  build/py/runtime.o
                                                  build/py/lexer.o
vstr_init_fixed_buf                               build/py/vstr.o
                                                  build/py/builtinimport.o
vstr_init_len                                     build/py/vstr.o
                                                  build/extmod/modos.o
                                                  build/py/stream.o
                                                  build/py/objstr.o
                                                  build/py/objint.o
                                                  build/py/persistentcode.o
vstr_init_print                                   build/py/vstr.o
                                                  build/py/modbuiltins.o
                                                  build/py/objstr.o
                                                  build/py/parsenum.o
vstr_ins_byte                                     build/py/vstr.o
                                                  build/py/builtinimport.o
vstr_ins_char                                     build/py/vstr.o
vstr_new                                          build/py/vstr.o
vstr_null_terminated_str                          build/py/vstr.o
                                                  build/py/builtinimport.o
                                                  build/py/objstr.o
                                                  build/py/lexer.o
vstr_printf                                       build/py/vstr.o
                                                  build/py/runtime.o
vstr_vprintf                                      build/py/vstr.o
vsys                                              ../../../obj/lib/entry.o
                                                  ../../../obj/lib/libjos.a(vsyscall.o)
vsys_gettime                                      ../../../obj/lib/libjos.a(vsyscall.o)
                                                  build/mphalport.o
                                                  build/extmod/modtime.o
wait                                              ../../../obj/lib/libjos.a(wait.o)
                                                  ../../../obj/lib/libjos.a(spawn.o)
write                                             ../../../obj/lib/libjos.a(fd.o)
                                                  ../../../obj/lib/libjos.a(fprintf.o)
                                                  build/mphalport.o
